
/home/chris/git/ambd_sdk/ambd_sdk_with_chip/project/realtek_amebaD_va0_example/GCC-RELEASE/project_lp/asdk/image/target_img2.axf:     file format elf32-littlearm


Disassembly of section .ram_image2.text:

00083020 <FLASH_Write_IPC_Int>:
   83020:	f3ef 8310 	mrs	r3, PRIMASK
   83024:	b113      	cbz	r3, 8302c <FLASH_Write_IPC_Int+0xc>
   83026:	bf20      	wfe
   83028:	bf20      	wfe
   8302a:	4770      	bx	lr
   8302c:	b672      	cpsid	i
   8302e:	bf20      	wfe
   83030:	bf20      	wfe
   83032:	b662      	cpsie	i
   83034:	e7f9      	b.n	8302a <FLASH_Write_IPC_Int+0xa>
   83036:	bf00      	nop

00083038 <FLASH_Write_Lock>:
   83038:	b510      	push	{r4, lr}
   8303a:	f780 f81a 	bl	3072 <IPC_INTGet+0x3>
   8303e:	2801      	cmp	r0, #1
   83040:	d01c      	beq.n	8307c <FLASH_Write_Lock+0x44>
   83042:	f001 fc45 	bl	848d0 <__km4_status_on_veneer>
   83046:	b968      	cbnz	r0, 83064 <FLASH_Write_Lock+0x2c>
   83048:	b672      	cpsid	i
   8304a:	f24e 0310 	movw	r3, #57360	; 0xe010
   8304e:	f245 3238 	movw	r2, #21304	; 0x5338
   83052:	f2ce 0300 	movt	r3, #57344	; 0xe000
   83056:	6819      	ldr	r1, [r3, #0]
   83058:	f2c0 0208 	movt	r2, #8
   8305c:	6011      	str	r1, [r2, #0]
   8305e:	2200      	movs	r2, #0
   83060:	601a      	str	r2, [r3, #0]
   83062:	bd10      	pop	{r4, pc}
   83064:	2100      	movs	r1, #0
   83066:	2002      	movs	r0, #2
   83068:	f001 fc6a 	bl	84940 <__ipc_send_message_veneer>
   8306c:	220c      	movs	r2, #12
   8306e:	2101      	movs	r1, #1
   83070:	f2c4 0200 	movt	r2, #16384	; 0x4000
   83074:	6813      	ldr	r3, [r2, #0]
   83076:	4219      	tst	r1, r3
   83078:	d0fc      	beq.n	83074 <FLASH_Write_Lock+0x3c>
   8307a:	e7e5      	b.n	83048 <FLASH_Write_Lock+0x10>
   8307c:	2100      	movs	r1, #0
   8307e:	3001      	adds	r0, #1
   83080:	f001 fc5e 	bl	84940 <__ipc_send_message_veneer>
   83084:	f240 2204 	movw	r2, #516	; 0x204
   83088:	2110      	movs	r1, #16
   8308a:	f6c4 0200 	movt	r2, #18432	; 0x4800
   8308e:	6813      	ldr	r3, [r2, #0]
   83090:	4219      	tst	r1, r3
   83092:	d0fc      	beq.n	8308e <FLASH_Write_Lock+0x56>
   83094:	e7d8      	b.n	83048 <FLASH_Write_Lock+0x10>
   83096:	bf00      	nop

00083098 <FLASH_Write_Unlock>:
   83098:	b510      	push	{r4, lr}
   8309a:	f77f ffea 	bl	3072 <IPC_INTGet+0x3>
   8309e:	b662      	cpsie	i
   830a0:	f245 3338 	movw	r3, #21304	; 0x5338
   830a4:	f2c0 0308 	movt	r3, #8
   830a8:	681a      	ldr	r2, [r3, #0]
   830aa:	f24e 0310 	movw	r3, #57360	; 0xe010
   830ae:	f2ce 0300 	movt	r3, #57344	; 0xe000
   830b2:	601a      	str	r2, [r3, #0]
   830b4:	bf40      	sev
   830b6:	2801      	cmp	r0, #1
   830b8:	d00a      	beq.n	830d0 <FLASH_Write_Unlock+0x38>
   830ba:	f001 fc09 	bl	848d0 <__km4_status_on_veneer>
   830be:	b130      	cbz	r0, 830ce <FLASH_Write_Unlock+0x36>
   830c0:	220c      	movs	r2, #12
   830c2:	2101      	movs	r1, #1
   830c4:	f2c4 0200 	movt	r2, #16384	; 0x4000
   830c8:	6813      	ldr	r3, [r2, #0]
   830ca:	4219      	tst	r1, r3
   830cc:	d1fc      	bne.n	830c8 <FLASH_Write_Unlock+0x30>
   830ce:	bd10      	pop	{r4, pc}
   830d0:	f240 2204 	movw	r2, #516	; 0x204
   830d4:	2110      	movs	r1, #16
   830d6:	f6c4 0200 	movt	r2, #18432	; 0x4800
   830da:	6813      	ldr	r3, [r2, #0]
   830dc:	4219      	tst	r1, r3
   830de:	d1fc      	bne.n	830da <FLASH_Write_Unlock+0x42>
   830e0:	e7f5      	b.n	830ce <FLASH_Write_Unlock+0x36>
   830e2:	bf00      	nop

000830e4 <FLASH_RxCmdXIP>:
   830e4:	b570      	push	{r4, r5, r6, lr}
   830e6:	000d      	movs	r5, r1
   830e8:	0016      	movs	r6, r2
   830ea:	0004      	movs	r4, r0
   830ec:	f7ff ffa4 	bl	83038 <FLASH_Write_Lock>
   830f0:	f641 531d 	movw	r3, #7453	; 0x1d1d
   830f4:	0032      	movs	r2, r6
   830f6:	0029      	movs	r1, r5
   830f8:	0020      	movs	r0, r4
   830fa:	f2c0 0300 	movt	r3, #0
   830fe:	4798      	blx	r3
   83100:	f7ff ffca 	bl	83098 <FLASH_Write_Unlock>
   83104:	bd70      	pop	{r4, r5, r6, pc}
   83106:	bf00      	nop

00083108 <FLASH_SetStatusXIP>:
   83108:	b570      	push	{r4, r5, r6, lr}
   8310a:	000d      	movs	r5, r1
   8310c:	0016      	movs	r6, r2
   8310e:	0004      	movs	r4, r0
   83110:	f7ff ff92 	bl	83038 <FLASH_Write_Lock>
   83114:	f242 1329 	movw	r3, #8489	; 0x2129
   83118:	0032      	movs	r2, r6
   8311a:	0029      	movs	r1, r5
   8311c:	0020      	movs	r0, r4
   8311e:	f2c0 0300 	movt	r3, #0
   83122:	4798      	blx	r3
   83124:	f7ff ffb8 	bl	83098 <FLASH_Write_Unlock>
   83128:	bd70      	pop	{r4, r5, r6, pc}
   8312a:	bf00      	nop

0008312c <FLASH_SetStatusBitsXIP>:
   8312c:	b570      	push	{r4, r5, r6, lr}
   8312e:	000d      	movs	r5, r1
   83130:	0004      	movs	r4, r0
   83132:	f7ff ff81 	bl	83038 <FLASH_Write_Lock>
   83136:	f242 2305 	movw	r3, #8709	; 0x2205
   8313a:	0029      	movs	r1, r5
   8313c:	0020      	movs	r0, r4
   8313e:	f2c0 0300 	movt	r3, #0
   83142:	4798      	blx	r3
   83144:	f7ff ffa8 	bl	83098 <FLASH_Write_Unlock>
   83148:	bd70      	pop	{r4, r5, r6, pc}
   8314a:	bf00      	nop

0008314c <FLASH_TxData12BXIP>:
   8314c:	b5f8      	push	{r3, r4, r5, r6, r7, lr}
   8314e:	46ce      	mov	lr, r9
   83150:	4647      	mov	r7, r8
   83152:	b580      	push	{r7, lr}
   83154:	0004      	movs	r4, r0
   83156:	000d      	movs	r5, r1
   83158:	0016      	movs	r6, r2
   8315a:	f7ff ff6d 	bl	83038 <FLASH_Write_Lock>
   8315e:	f242 0349 	movw	r3, #8265	; 0x2049
   83162:	0032      	movs	r2, r6
   83164:	0029      	movs	r1, r5
   83166:	0020      	movs	r0, r4
   83168:	f2c0 0300 	movt	r3, #0
   8316c:	4798      	blx	r3
   8316e:	f3bf 8f4f 	dsb	sy
   83172:	f3bf 8f6f 	isb	sy
   83176:	f64e 5400 	movw	r4, #60672	; 0xed00
   8317a:	2300      	movs	r3, #0
   8317c:	f240 2250 	movw	r2, #592	; 0x250
   83180:	f2ce 0400 	movt	r4, #57344	; 0xe000
   83184:	50a3      	str	r3, [r4, r2]
   83186:	f3bf 8f4f 	dsb	sy
   8318a:	f3bf 8f6f 	isb	sy
   8318e:	3acd      	subs	r2, #205	; 0xcd
   83190:	3aff      	subs	r2, #255	; 0xff
   83192:	50a3      	str	r3, [r4, r2]
   83194:	f3bf 8f4f 	dsb	sy
   83198:	3380      	adds	r3, #128	; 0x80
   8319a:	58e6      	ldr	r6, [r4, r3]
   8319c:	f643 7ce0 	movw	ip, #16352	; 0x3fe0
   831a0:	04f7      	lsls	r7, r6, #19
   831a2:	0dbf      	lsrs	r7, r7, #22
   831a4:	07fb      	lsls	r3, r7, #31
   831a6:	4698      	mov	r8, r3
   831a8:	f240 2560 	movw	r5, #608	; 0x260
   831ac:	0136      	lsls	r6, r6, #4
   831ae:	0c76      	lsrs	r6, r6, #17
   831b0:	0176      	lsls	r6, r6, #5
   831b2:	4660      	mov	r0, ip
   831b4:	4642      	mov	r2, r8
   831b6:	003b      	movs	r3, r7
   831b8:	4030      	ands	r0, r6
   831ba:	0011      	movs	r1, r2
   831bc:	4301      	orrs	r1, r0
   831be:	5161      	str	r1, [r4, r5]
   831c0:	2180      	movs	r1, #128	; 0x80
   831c2:	0609      	lsls	r1, r1, #24
   831c4:	4689      	mov	r9, r1
   831c6:	444a      	add	r2, r9
   831c8:	3b01      	subs	r3, #1
   831ca:	d2f6      	bcs.n	831ba <FLASH_TxData12BXIP+0x6e>
   831cc:	3e20      	subs	r6, #32
   831ce:	0033      	movs	r3, r6
   831d0:	3320      	adds	r3, #32
   831d2:	d1ee      	bne.n	831b2 <FLASH_TxData12BXIP+0x66>
   831d4:	f3bf 8f4f 	dsb	sy
   831d8:	f3bf 8f6f 	isb	sy
   831dc:	f7ff ff5c 	bl	83098 <FLASH_Write_Unlock>
   831e0:	bc0c      	pop	{r2, r3}
   831e2:	4690      	mov	r8, r2
   831e4:	4699      	mov	r9, r3
   831e6:	bdf8      	pop	{r3, r4, r5, r6, r7, pc}

000831e8 <FLASH_EraseXIP>:
   831e8:	b5f8      	push	{r3, r4, r5, r6, r7, lr}
   831ea:	46ce      	mov	lr, r9
   831ec:	4647      	mov	r7, r8
   831ee:	b580      	push	{r7, lr}
   831f0:	0004      	movs	r4, r0
   831f2:	000d      	movs	r5, r1
   831f4:	f7ff ff20 	bl	83038 <FLASH_Write_Lock>
   831f8:	f242 1347 	movw	r3, #8519	; 0x2147
   831fc:	0029      	movs	r1, r5
   831fe:	0020      	movs	r0, r4
   83200:	f2c0 0300 	movt	r3, #0
   83204:	4798      	blx	r3
   83206:	f3bf 8f4f 	dsb	sy
   8320a:	f3bf 8f6f 	isb	sy
   8320e:	f64e 5400 	movw	r4, #60672	; 0xed00
   83212:	2300      	movs	r3, #0
   83214:	f240 2250 	movw	r2, #592	; 0x250
   83218:	f2ce 0400 	movt	r4, #57344	; 0xe000
   8321c:	50a3      	str	r3, [r4, r2]
   8321e:	f3bf 8f4f 	dsb	sy
   83222:	f3bf 8f6f 	isb	sy
   83226:	3acd      	subs	r2, #205	; 0xcd
   83228:	3aff      	subs	r2, #255	; 0xff
   8322a:	50a3      	str	r3, [r4, r2]
   8322c:	f3bf 8f4f 	dsb	sy
   83230:	3380      	adds	r3, #128	; 0x80
   83232:	58e6      	ldr	r6, [r4, r3]
   83234:	f643 7ce0 	movw	ip, #16352	; 0x3fe0
   83238:	04f7      	lsls	r7, r6, #19
   8323a:	0dbf      	lsrs	r7, r7, #22
   8323c:	07fb      	lsls	r3, r7, #31
   8323e:	4698      	mov	r8, r3
   83240:	f240 2560 	movw	r5, #608	; 0x260
   83244:	0136      	lsls	r6, r6, #4
   83246:	0c76      	lsrs	r6, r6, #17
   83248:	0176      	lsls	r6, r6, #5
   8324a:	4660      	mov	r0, ip
   8324c:	4642      	mov	r2, r8
   8324e:	003b      	movs	r3, r7
   83250:	4030      	ands	r0, r6
   83252:	0011      	movs	r1, r2
   83254:	4301      	orrs	r1, r0
   83256:	5161      	str	r1, [r4, r5]
   83258:	2180      	movs	r1, #128	; 0x80
   8325a:	0609      	lsls	r1, r1, #24
   8325c:	4689      	mov	r9, r1
   8325e:	444a      	add	r2, r9
   83260:	3b01      	subs	r3, #1
   83262:	d2f6      	bcs.n	83252 <FLASH_EraseXIP+0x6a>
   83264:	3e20      	subs	r6, #32
   83266:	0033      	movs	r3, r6
   83268:	3320      	adds	r3, #32
   8326a:	d1ee      	bne.n	8324a <FLASH_EraseXIP+0x62>
   8326c:	f3bf 8f4f 	dsb	sy
   83270:	f3bf 8f6f 	isb	sy
   83274:	f7ff ff10 	bl	83098 <FLASH_Write_Unlock>
   83278:	bc0c      	pop	{r2, r3}
   8327a:	4690      	mov	r8, r2
   8327c:	4699      	mov	r9, r3
   8327e:	bdf8      	pop	{r3, r4, r5, r6, r7, pc}

00083280 <FLASH_EreaseDwordsXIP>:
   83280:	b5f0      	push	{r4, r5, r6, r7, lr}
   83282:	46de      	mov	lr, fp
   83284:	4657      	mov	r7, sl
   83286:	4645      	mov	r5, r8
   83288:	464e      	mov	r6, r9
   8328a:	b5e0      	push	{r5, r6, r7, lr}
   8328c:	0b03      	lsrs	r3, r0, #12
   8328e:	031b      	lsls	r3, r3, #12
   83290:	b085      	sub	sp, #20
   83292:	4682      	mov	sl, r0
   83294:	4688      	mov	r8, r1
   83296:	2002      	movs	r0, #2
   83298:	f242 0100 	movw	r1, #8192	; 0x2000
   8329c:	001d      	movs	r5, r3
   8329e:	9301      	str	r3, [sp, #4]
   832a0:	f7ff ffa2 	bl	831e8 <FLASH_EraseXIP>
   832a4:	2301      	movs	r3, #1
   832a6:	f246 5791 	movw	r7, #26001	; 0x6591
   832aa:	425b      	negs	r3, r3
   832ac:	f242 0400 	movw	r4, #8192	; 0x2000
   832b0:	f2c0 0700 	movt	r7, #0
   832b4:	469b      	mov	fp, r3
   832b6:	f243 0900 	movw	r9, #12288	; 0x3000
   832ba:	e008      	b.n	832ce <FLASH_EreaseDwordsXIP+0x4e>
   832bc:	0020      	movs	r0, r4
   832be:	aa02      	add	r2, sp, #8
   832c0:	2104      	movs	r1, #4
   832c2:	3404      	adds	r4, #4
   832c4:	f7ff ff42 	bl	8314c <FLASH_TxData12BXIP>
   832c8:	0035      	movs	r5, r6
   832ca:	454c      	cmp	r4, r9
   832cc:	d013      	beq.n	832f6 <FLASH_EreaseDwordsXIP+0x76>
   832ce:	2380      	movs	r3, #128	; 0x80
   832d0:	051b      	lsls	r3, r3, #20
   832d2:	18e9      	adds	r1, r5, r3
   832d4:	2204      	movs	r2, #4
   832d6:	a802      	add	r0, sp, #8
   832d8:	47b8      	blx	r7
   832da:	4643      	mov	r3, r8
   832dc:	1d2e      	adds	r6, r5, #4
   832de:	2b00      	cmp	r3, #0
   832e0:	d0ec      	beq.n	832bc <FLASH_EreaseDwordsXIP+0x3c>
   832e2:	4555      	cmp	r5, sl
   832e4:	d1ea      	bne.n	832bc <FLASH_EreaseDwordsXIP+0x3c>
   832e6:	465b      	mov	r3, fp
   832e8:	9302      	str	r3, [sp, #8]
   832ea:	2301      	movs	r3, #1
   832ec:	425b      	negs	r3, r3
   832ee:	469c      	mov	ip, r3
   832f0:	46b2      	mov	sl, r6
   832f2:	44e0      	add	r8, ip
   832f4:	e7e2      	b.n	832bc <FLASH_EreaseDwordsXIP+0x3c>
   832f6:	9d01      	ldr	r5, [sp, #4]
   832f8:	2002      	movs	r0, #2
   832fa:	0029      	movs	r1, r5
   832fc:	f7ff ff74 	bl	831e8 <FLASH_EraseXIP>
   83300:	f24e 0200 	movw	r2, #57344	; 0xe000
   83304:	f2cf 72ff 	movt	r2, #63487	; 0xf7ff
   83308:	002b      	movs	r3, r5
   8330a:	4694      	mov	ip, r2
   8330c:	f242 0400 	movw	r4, #8192	; 0x2000
   83310:	4463      	add	r3, ip
   83312:	f243 0600 	movw	r6, #12288	; 0x3000
   83316:	001d      	movs	r5, r3
   83318:	f6c0 0400 	movt	r4, #2048	; 0x800
   8331c:	f6c0 0600 	movt	r6, #2048	; 0x800
   83320:	0021      	movs	r1, r4
   83322:	2208      	movs	r2, #8
   83324:	a802      	add	r0, sp, #8
   83326:	47b8      	blx	r7
   83328:	1928      	adds	r0, r5, r4
   8332a:	aa02      	add	r2, sp, #8
   8332c:	2108      	movs	r1, #8
   8332e:	3408      	adds	r4, #8
   83330:	f7ff ff0c 	bl	8314c <FLASH_TxData12BXIP>
   83334:	42b4      	cmp	r4, r6
   83336:	d1f3      	bne.n	83320 <FLASH_EreaseDwordsXIP+0xa0>
   83338:	b005      	add	sp, #20
   8333a:	bc3c      	pop	{r2, r3, r4, r5}
   8333c:	4690      	mov	r8, r2
   8333e:	4699      	mov	r9, r3
   83340:	46a2      	mov	sl, r4
   83342:	46ab      	mov	fp, r5
   83344:	bdf0      	pop	{r4, r5, r6, r7, pc}
   83346:	bf00      	nop

00083348 <FLASH_TxData256BXIP>:
   83348:	b5f8      	push	{r3, r4, r5, r6, r7, lr}
   8334a:	46ce      	mov	lr, r9
   8334c:	4647      	mov	r7, r8
   8334e:	b580      	push	{r7, lr}
   83350:	0004      	movs	r4, r0
   83352:	000d      	movs	r5, r1
   83354:	0016      	movs	r6, r2
   83356:	f7ff fe6f 	bl	83038 <FLASH_Write_Lock>
   8335a:	f641 7361 	movw	r3, #8033	; 0x1f61
   8335e:	0032      	movs	r2, r6
   83360:	0029      	movs	r1, r5
   83362:	0020      	movs	r0, r4
   83364:	f2c0 0300 	movt	r3, #0
   83368:	4798      	blx	r3
   8336a:	f3bf 8f4f 	dsb	sy
   8336e:	f3bf 8f6f 	isb	sy
   83372:	f64e 5400 	movw	r4, #60672	; 0xed00
   83376:	2300      	movs	r3, #0
   83378:	f240 2250 	movw	r2, #592	; 0x250
   8337c:	f2ce 0400 	movt	r4, #57344	; 0xe000
   83380:	50a3      	str	r3, [r4, r2]
   83382:	f3bf 8f4f 	dsb	sy
   83386:	f3bf 8f6f 	isb	sy
   8338a:	3acd      	subs	r2, #205	; 0xcd
   8338c:	3aff      	subs	r2, #255	; 0xff
   8338e:	50a3      	str	r3, [r4, r2]
   83390:	f3bf 8f4f 	dsb	sy
   83394:	3380      	adds	r3, #128	; 0x80
   83396:	58e6      	ldr	r6, [r4, r3]
   83398:	f643 7ce0 	movw	ip, #16352	; 0x3fe0
   8339c:	04f7      	lsls	r7, r6, #19
   8339e:	0dbf      	lsrs	r7, r7, #22
   833a0:	07fb      	lsls	r3, r7, #31
   833a2:	4698      	mov	r8, r3
   833a4:	f240 2560 	movw	r5, #608	; 0x260
   833a8:	0136      	lsls	r6, r6, #4
   833aa:	0c76      	lsrs	r6, r6, #17
   833ac:	0176      	lsls	r6, r6, #5
   833ae:	4660      	mov	r0, ip
   833b0:	4642      	mov	r2, r8
   833b2:	003b      	movs	r3, r7
   833b4:	4030      	ands	r0, r6
   833b6:	0011      	movs	r1, r2
   833b8:	4301      	orrs	r1, r0
   833ba:	5161      	str	r1, [r4, r5]
   833bc:	2180      	movs	r1, #128	; 0x80
   833be:	0609      	lsls	r1, r1, #24
   833c0:	4689      	mov	r9, r1
   833c2:	444a      	add	r2, r9
   833c4:	3b01      	subs	r3, #1
   833c6:	d2f6      	bcs.n	833b6 <FLASH_TxData256BXIP+0x6e>
   833c8:	3e20      	subs	r6, #32
   833ca:	0033      	movs	r3, r6
   833cc:	3320      	adds	r3, #32
   833ce:	d1ee      	bne.n	833ae <FLASH_TxData256BXIP+0x66>
   833d0:	f3bf 8f4f 	dsb	sy
   833d4:	f3bf 8f6f 	isb	sy
   833d8:	f7ff fe5e 	bl	83098 <FLASH_Write_Unlock>
   833dc:	bc0c      	pop	{r2, r3}
   833de:	4690      	mov	r8, r2
   833e0:	4699      	mov	r9, r3
   833e2:	bdf8      	pop	{r3, r4, r5, r6, r7, pc}

000833e4 <FLASH_ReadStream>:
   833e4:	b5f0      	push	{r4, r5, r6, r7, lr}
   833e6:	46c6      	mov	lr, r8
   833e8:	b500      	push	{lr}
   833ea:	0007      	movs	r7, r0
   833ec:	b082      	sub	sp, #8
   833ee:	000d      	movs	r5, r1
   833f0:	0014      	movs	r4, r2
   833f2:	2a00      	cmp	r2, #0
   833f4:	d100      	bne.n	833f8 <FLASH_ReadStream+0x14>
   833f6:	e072      	b.n	834de <FLASH_ReadStream+0xfa>
   833f8:	2103      	movs	r1, #3
   833fa:	4039      	ands	r1, r7
   833fc:	b1b9      	cbz	r1, 8342e <FLASH_ReadStream+0x4a>
   833fe:	2380      	movs	r3, #128	; 0x80
   83400:	2604      	movs	r6, #4
   83402:	051b      	lsls	r3, r3, #20
   83404:	18fb      	adds	r3, r7, r3
   83406:	1a5b      	subs	r3, r3, r1
   83408:	681b      	ldr	r3, [r3, #0]
   8340a:	1e6a      	subs	r2, r5, #1
   8340c:	a801      	add	r0, sp, #4
   8340e:	9301      	str	r3, [sp, #4]
   83410:	1a76      	subs	r6, r6, r1
   83412:	4694      	mov	ip, r2
   83414:	2300      	movs	r3, #0
   83416:	1840      	adds	r0, r0, r1
   83418:	e000      	b.n	8341c <FLASH_ReadStream+0x38>
   8341a:	3a01      	subs	r2, #1
   8341c:	5cc1      	ldrb	r1, [r0, r3]
   8341e:	0015      	movs	r5, r2
   83420:	7021      	strb	r1, [r4, #0]
   83422:	3401      	adds	r4, #1
   83424:	4563      	cmp	r3, ip
   83426:	d03b      	beq.n	834a0 <FLASH_ReadStream+0xbc>
   83428:	3301      	adds	r3, #1
   8342a:	429e      	cmp	r6, r3
   8342c:	d1f5      	bne.n	8341a <FLASH_ReadStream+0x36>
   8342e:	3f01      	subs	r7, #1
   83430:	08bf      	lsrs	r7, r7, #2
   83432:	3701      	adds	r7, #1
   83434:	00bf      	lsls	r7, r7, #2
   83436:	07a3      	lsls	r3, r4, #30
   83438:	d037      	beq.n	834aa <FLASH_ReadStream+0xc6>
   8343a:	2d03      	cmp	r5, #3
   8343c:	d922      	bls.n	83484 <FLASH_ReadStream+0xa0>
   8343e:	2380      	movs	r3, #128	; 0x80
   83440:	051b      	lsls	r3, r3, #20
   83442:	18fe      	adds	r6, r7, r3
   83444:	1f2b      	subs	r3, r5, #4
   83446:	4698      	mov	r8, r3
   83448:	2204      	movs	r2, #4
   8344a:	089b      	lsrs	r3, r3, #2
   8344c:	009b      	lsls	r3, r3, #2
   8344e:	469c      	mov	ip, r3
   83450:	0021      	movs	r1, r4
   83452:	f6c0 0200 	movt	r2, #2048	; 0x800
   83456:	18ba      	adds	r2, r7, r2
   83458:	4494      	add	ip, r2
   8345a:	a801      	add	r0, sp, #4
   8345c:	6833      	ldr	r3, [r6, #0]
   8345e:	9301      	str	r3, [sp, #4]
   83460:	2300      	movs	r3, #0
   83462:	5cc2      	ldrb	r2, [r0, r3]
   83464:	54ca      	strb	r2, [r1, r3]
   83466:	3301      	adds	r3, #1
   83468:	2b04      	cmp	r3, #4
   8346a:	d1fa      	bne.n	83462 <FLASH_ReadStream+0x7e>
   8346c:	3604      	adds	r6, #4
   8346e:	3104      	adds	r1, #4
   83470:	4566      	cmp	r6, ip
   83472:	d1f3      	bne.n	8345c <FLASH_ReadStream+0x78>
   83474:	2203      	movs	r2, #3
   83476:	4643      	mov	r3, r8
   83478:	4393      	bics	r3, r2
   8347a:	1d19      	adds	r1, r3, #4
   8347c:	3704      	adds	r7, #4
   8347e:	1864      	adds	r4, r4, r1
   83480:	19df      	adds	r7, r3, r7
   83482:	4015      	ands	r5, r2
   83484:	b165      	cbz	r5, 834a0 <FLASH_ReadStream+0xbc>
   83486:	2380      	movs	r3, #128	; 0x80
   83488:	051b      	lsls	r3, r3, #20
   8348a:	469c      	mov	ip, r3
   8348c:	4467      	add	r7, ip
   8348e:	683b      	ldr	r3, [r7, #0]
   83490:	a801      	add	r0, sp, #4
   83492:	9301      	str	r3, [sp, #4]
   83494:	2300      	movs	r3, #0
   83496:	5cc2      	ldrb	r2, [r0, r3]
   83498:	54e2      	strb	r2, [r4, r3]
   8349a:	3301      	adds	r3, #1
   8349c:	429d      	cmp	r5, r3
   8349e:	d1fa      	bne.n	83496 <FLASH_ReadStream+0xb2>
   834a0:	2001      	movs	r0, #1
   834a2:	b002      	add	sp, #8
   834a4:	bc04      	pop	{r2}
   834a6:	4690      	mov	r8, r2
   834a8:	bdf0      	pop	{r4, r5, r6, r7, pc}
   834aa:	2d03      	cmp	r5, #3
   834ac:	d9ea      	bls.n	83484 <FLASH_ReadStream+0xa0>
   834ae:	2204      	movs	r2, #4
   834b0:	1f2e      	subs	r6, r5, #4
   834b2:	2380      	movs	r3, #128	; 0x80
   834b4:	08b0      	lsrs	r0, r6, #2
   834b6:	f6c0 0200 	movt	r2, #2048	; 0x800
   834ba:	18ba      	adds	r2, r7, r2
   834bc:	0080      	lsls	r0, r0, #2
   834be:	1880      	adds	r0, r0, r2
   834c0:	0022      	movs	r2, r4
   834c2:	051b      	lsls	r3, r3, #20
   834c4:	18fb      	adds	r3, r7, r3
   834c6:	cb02      	ldmia	r3!, {r1}
   834c8:	c202      	stmia	r2!, {r1}
   834ca:	4298      	cmp	r0, r3
   834cc:	d1fb      	bne.n	834c6 <FLASH_ReadStream+0xe2>
   834ce:	2203      	movs	r2, #3
   834d0:	4396      	bics	r6, r2
   834d2:	1d31      	adds	r1, r6, #4
   834d4:	3704      	adds	r7, #4
   834d6:	1864      	adds	r4, r4, r1
   834d8:	19f7      	adds	r7, r6, r7
   834da:	4015      	ands	r5, r2
   834dc:	e7d2      	b.n	83484 <FLASH_ReadStream+0xa0>
   834de:	f644 40a0 	movw	r0, #19616	; 0x4ca0
   834e2:	f240 1139 	movw	r1, #313	; 0x139
   834e6:	f6c0 4001 	movt	r0, #3073	; 0xc01
   834ea:	f77d ff81 	bl	13f0 <RandBytes_Get+0x47>
   834ee:	e783      	b.n	833f8 <FLASH_ReadStream+0x14>

000834f0 <FLASH_WriteStream>:
   834f0:	b5f0      	push	{r4, r5, r6, r7, lr}
   834f2:	464e      	mov	r6, r9
   834f4:	46de      	mov	lr, fp
   834f6:	4657      	mov	r7, sl
   834f8:	4645      	mov	r5, r8
   834fa:	23ff      	movs	r3, #255	; 0xff
   834fc:	b5e0      	push	{r5, r6, r7, lr}
   834fe:	0016      	movs	r6, r2
   83500:	0002      	movs	r2, r0
   83502:	b08b      	sub	sp, #44	; 0x2c
   83504:	1841      	adds	r1, r0, r1
   83506:	439a      	bics	r2, r3
   83508:	9105      	str	r1, [sp, #20]
   8350a:	4399      	bics	r1, r3
   8350c:	1a8b      	subs	r3, r1, r2
   8350e:	0a1b      	lsrs	r3, r3, #8
   83510:	3301      	adds	r3, #1
   83512:	0004      	movs	r4, r0
   83514:	9303      	str	r3, [sp, #12]
   83516:	2b01      	cmp	r3, #1
   83518:	d100      	bne.n	8351c <FLASH_WriteStream+0x2c>
   8351a:	e0e1      	b.n	836e0 <FLASH_WriteStream+0x1f0>
   8351c:	1c53      	adds	r3, r2, #1
   8351e:	33ff      	adds	r3, #255	; 0xff
   83520:	9302      	str	r3, [sp, #8]
   83522:	9b02      	ldr	r3, [sp, #8]
   83524:	1b1f      	subs	r7, r3, r4
   83526:	f7ff fd87 	bl	83038 <FLASH_Write_Lock>
   8352a:	2103      	movs	r1, #3
   8352c:	4021      	ands	r1, r4
   8352e:	b1d1      	cbz	r1, 83566 <FLASH_WriteStream+0x76>
   83530:	2380      	movs	r3, #128	; 0x80
   83532:	1a60      	subs	r0, r4, r1
   83534:	051b      	lsls	r3, r3, #20
   83536:	18c3      	adds	r3, r0, r3
   83538:	681b      	ldr	r3, [r3, #0]
   8353a:	00c9      	lsls	r1, r1, #3
   8353c:	22ff      	movs	r2, #255	; 0xff
   8353e:	408a      	lsls	r2, r1
   83540:	4393      	bics	r3, r2
   83542:	7832      	ldrb	r2, [r6, #0]
   83544:	3f01      	subs	r7, #1
   83546:	408a      	lsls	r2, r1
   83548:	3601      	adds	r6, #1
   8354a:	4313      	orrs	r3, r2
   8354c:	2f00      	cmp	r7, #0
   8354e:	d07d      	beq.n	8364c <FLASH_WriteStream+0x15c>
   83550:	3108      	adds	r1, #8
   83552:	2920      	cmp	r1, #32
   83554:	d1f2      	bne.n	8353c <FLASH_WriteStream+0x4c>
   83556:	f242 0949 	movw	r9, #8265	; 0x2049
   8355a:	aa06      	add	r2, sp, #24
   8355c:	391c      	subs	r1, #28
   8355e:	f2c0 0900 	movt	r9, #0
   83562:	9306      	str	r3, [sp, #24]
   83564:	47c8      	blx	r9
   83566:	3c01      	subs	r4, #1
   83568:	08a4      	lsrs	r4, r4, #2
   8356a:	3401      	adds	r4, #1
   8356c:	00a4      	lsls	r4, r4, #2
   8356e:	2f0b      	cmp	r7, #11
   83570:	d915      	bls.n	8359e <FLASH_WriteStream+0xae>
   83572:	f242 0949 	movw	r9, #8265	; 0x2049
   83576:	f246 5a91 	movw	sl, #26001	; 0x6591
   8357a:	f2c0 0900 	movt	r9, #0
   8357e:	ad07      	add	r5, sp, #28
   83580:	f2c0 0a00 	movt	sl, #0
   83584:	0031      	movs	r1, r6
   83586:	220c      	movs	r2, #12
   83588:	0028      	movs	r0, r5
   8358a:	47d0      	blx	sl
   8358c:	3f0c      	subs	r7, #12
   8358e:	0020      	movs	r0, r4
   83590:	002a      	movs	r2, r5
   83592:	210c      	movs	r1, #12
   83594:	47c8      	blx	r9
   83596:	360c      	adds	r6, #12
   83598:	340c      	adds	r4, #12
   8359a:	2f0b      	cmp	r7, #11
   8359c:	d8f2      	bhi.n	83584 <FLASH_WriteStream+0x94>
   8359e:	2f03      	cmp	r7, #3
   835a0:	d92b      	bls.n	835fa <FLASH_WriteStream+0x10a>
   835a2:	2203      	movs	r2, #3
   835a4:	1f3b      	subs	r3, r7, #4
   835a6:	4393      	bics	r3, r2
   835a8:	1d22      	adds	r2, r4, #4
   835aa:	4690      	mov	r8, r2
   835ac:	f242 0949 	movw	r9, #8265	; 0x2049
   835b0:	f246 5a91 	movw	sl, #26001	; 0x6591
   835b4:	ad07      	add	r5, sp, #28
   835b6:	9304      	str	r3, [sp, #16]
   835b8:	4443      	add	r3, r8
   835ba:	46b3      	mov	fp, r6
   835bc:	46b8      	mov	r8, r7
   835be:	9301      	str	r3, [sp, #4]
   835c0:	0037      	movs	r7, r6
   835c2:	f2c0 0900 	movt	r9, #0
   835c6:	002e      	movs	r6, r5
   835c8:	f2c0 0a00 	movt	sl, #0
   835cc:	0015      	movs	r5, r2
   835ce:	e000      	b.n	835d2 <FLASH_WriteStream+0xe2>
   835d0:	3504      	adds	r5, #4
   835d2:	0039      	movs	r1, r7
   835d4:	2204      	movs	r2, #4
   835d6:	0030      	movs	r0, r6
   835d8:	47d0      	blx	sl
   835da:	0020      	movs	r0, r4
   835dc:	0032      	movs	r2, r6
   835de:	2104      	movs	r1, #4
   835e0:	47c8      	blx	r9
   835e2:	9b01      	ldr	r3, [sp, #4]
   835e4:	3704      	adds	r7, #4
   835e6:	002c      	movs	r4, r5
   835e8:	429d      	cmp	r5, r3
   835ea:	d1f1      	bne.n	835d0 <FLASH_WriteStream+0xe0>
   835ec:	465e      	mov	r6, fp
   835ee:	9b04      	ldr	r3, [sp, #16]
   835f0:	4647      	mov	r7, r8
   835f2:	3304      	adds	r3, #4
   835f4:	18f6      	adds	r6, r6, r3
   835f6:	2303      	movs	r3, #3
   835f8:	401f      	ands	r7, r3
   835fa:	b1c7      	cbz	r7, 8362e <FLASH_WriteStream+0x13e>
   835fc:	2380      	movs	r3, #128	; 0x80
   835fe:	2100      	movs	r1, #0
   83600:	051b      	lsls	r3, r3, #20
   83602:	18e3      	adds	r3, r4, r3
   83604:	681b      	ldr	r3, [r3, #0]
   83606:	19f7      	adds	r7, r6, r7
   83608:	22ff      	movs	r2, #255	; 0xff
   8360a:	408a      	lsls	r2, r1
   8360c:	4393      	bics	r3, r2
   8360e:	7832      	ldrb	r2, [r6, #0]
   83610:	3601      	adds	r6, #1
   83612:	408a      	lsls	r2, r1
   83614:	3108      	adds	r1, #8
   83616:	4313      	orrs	r3, r2
   83618:	42be      	cmp	r6, r7
   8361a:	d1f5      	bne.n	83608 <FLASH_WriteStream+0x118>
   8361c:	f242 0949 	movw	r9, #8265	; 0x2049
   83620:	aa06      	add	r2, sp, #24
   83622:	2104      	movs	r1, #4
   83624:	0020      	movs	r0, r4
   83626:	f2c0 0900 	movt	r9, #0
   8362a:	9306      	str	r3, [sp, #24]
   8362c:	47c8      	blx	r9
   8362e:	9b03      	ldr	r3, [sp, #12]
   83630:	3b01      	subs	r3, #1
   83632:	001a      	movs	r2, r3
   83634:	9303      	str	r3, [sp, #12]
   83636:	2b01      	cmp	r3, #1
   83638:	d055      	beq.n	836e6 <FLASH_WriteStream+0x1f6>
   8363a:	9902      	ldr	r1, [sp, #8]
   8363c:	0a0b      	lsrs	r3, r1, #8
   8363e:	3301      	adds	r3, #1
   83640:	021b      	lsls	r3, r3, #8
   83642:	1a5f      	subs	r7, r3, r1
   83644:	b15a      	cbz	r2, 8365e <FLASH_WriteStream+0x16e>
   83646:	9c02      	ldr	r4, [sp, #8]
   83648:	9302      	str	r3, [sp, #8]
   8364a:	e76e      	b.n	8352a <FLASH_WriteStream+0x3a>
   8364c:	f242 0949 	movw	r9, #8265	; 0x2049
   83650:	aa06      	add	r2, sp, #24
   83652:	2104      	movs	r1, #4
   83654:	f2c0 0900 	movt	r9, #0
   83658:	9306      	str	r3, [sp, #24]
   8365a:	47c8      	blx	r9
   8365c:	e7e7      	b.n	8362e <FLASH_WriteStream+0x13e>
   8365e:	f3bf 8f4f 	dsb	sy
   83662:	f3bf 8f6f 	isb	sy
   83666:	f64e 5400 	movw	r4, #60672	; 0xed00
   8366a:	f240 2350 	movw	r3, #592	; 0x250
   8366e:	9a03      	ldr	r2, [sp, #12]
   83670:	f2ce 0400 	movt	r4, #57344	; 0xe000
   83674:	50e2      	str	r2, [r4, r3]
   83676:	f3bf 8f4f 	dsb	sy
   8367a:	f3bf 8f6f 	isb	sy
   8367e:	3bcd      	subs	r3, #205	; 0xcd
   83680:	3bff      	subs	r3, #255	; 0xff
   83682:	50e2      	str	r2, [r4, r3]
   83684:	f3bf 8f4f 	dsb	sy
   83688:	3b04      	subs	r3, #4
   8368a:	58e6      	ldr	r6, [r4, r3]
   8368c:	f643 7ce0 	movw	ip, #16352	; 0x3fe0
   83690:	04f7      	lsls	r7, r6, #19
   83692:	0dbf      	lsrs	r7, r7, #22
   83694:	07fb      	lsls	r3, r7, #31
   83696:	4698      	mov	r8, r3
   83698:	f240 2560 	movw	r5, #608	; 0x260
   8369c:	0136      	lsls	r6, r6, #4
   8369e:	0c76      	lsrs	r6, r6, #17
   836a0:	0176      	lsls	r6, r6, #5
   836a2:	4660      	mov	r0, ip
   836a4:	4642      	mov	r2, r8
   836a6:	003b      	movs	r3, r7
   836a8:	4030      	ands	r0, r6
   836aa:	0011      	movs	r1, r2
   836ac:	4301      	orrs	r1, r0
   836ae:	5161      	str	r1, [r4, r5]
   836b0:	2180      	movs	r1, #128	; 0x80
   836b2:	0609      	lsls	r1, r1, #24
   836b4:	4689      	mov	r9, r1
   836b6:	444a      	add	r2, r9
   836b8:	3b01      	subs	r3, #1
   836ba:	d2f6      	bcs.n	836aa <FLASH_WriteStream+0x1ba>
   836bc:	3e20      	subs	r6, #32
   836be:	0033      	movs	r3, r6
   836c0:	3320      	adds	r3, #32
   836c2:	d1ee      	bne.n	836a2 <FLASH_WriteStream+0x1b2>
   836c4:	f3bf 8f4f 	dsb	sy
   836c8:	f3bf 8f6f 	isb	sy
   836cc:	f7ff fce4 	bl	83098 <FLASH_Write_Unlock>
   836d0:	2001      	movs	r0, #1
   836d2:	b00b      	add	sp, #44	; 0x2c
   836d4:	bc3c      	pop	{r2, r3, r4, r5}
   836d6:	4690      	mov	r8, r2
   836d8:	4699      	mov	r9, r3
   836da:	46a2      	mov	sl, r4
   836dc:	46ab      	mov	fp, r5
   836de:	bdf0      	pop	{r4, r5, r6, r7, pc}
   836e0:	9b05      	ldr	r3, [sp, #20]
   836e2:	9302      	str	r3, [sp, #8]
   836e4:	e71d      	b.n	83522 <FLASH_WriteStream+0x32>
   836e6:	9b05      	ldr	r3, [sp, #20]
   836e8:	9a02      	ldr	r2, [sp, #8]
   836ea:	1a9f      	subs	r7, r3, r2
   836ec:	e7ab      	b.n	83646 <FLASH_WriteStream+0x156>
   836ee:	bf00      	nop

000836f0 <FLASH_ClockSwitch>:
   836f0:	b510      	push	{r4, lr}
   836f2:	000c      	movs	r4, r1
   836f4:	b141      	cbz	r1, 83708 <FLASH_ClockSwitch+0x18>
   836f6:	b672      	cpsid	i
   836f8:	f24e 0310 	movw	r3, #57360	; 0xe010
   836fc:	2101      	movs	r1, #1
   836fe:	f2ce 0300 	movt	r3, #57344	; 0xe000
   83702:	681a      	ldr	r2, [r3, #0]
   83704:	438a      	bics	r2, r1
   83706:	601a      	str	r2, [r3, #0]
   83708:	f240 2300 	movw	r3, #512	; 0x200
   8370c:	4298      	cmp	r0, r3
   8370e:	d051      	beq.n	837b4 <FLASH_ClockSwitch+0xc4>
   83710:	f240 4300 	movw	r3, #1024	; 0x400
   83714:	4298      	cmp	r0, r3
   83716:	d00a      	beq.n	8372e <FLASH_ClockSwitch+0x3e>
   83718:	b144      	cbz	r4, 8372c <FLASH_ClockSwitch+0x3c>
   8371a:	f24e 0310 	movw	r3, #57360	; 0xe010
   8371e:	2101      	movs	r1, #1
   83720:	f2ce 0300 	movt	r3, #57344	; 0xe000
   83724:	681a      	ldr	r2, [r3, #0]
   83726:	430a      	orrs	r2, r1
   83728:	601a      	str	r2, [r3, #0]
   8372a:	b662      	cpsie	i
   8372c:	bd10      	pop	{r4, pc}
   8372e:	f244 0100 	movw	r1, #16384	; 0x4000
   83732:	3b41      	subs	r3, #65	; 0x41
   83734:	3bff      	subs	r3, #255	; 0xff
   83736:	f6c4 0300 	movt	r3, #18432	; 0x4800
   8373a:	681a      	ldr	r2, [r3, #0]
   8373c:	2001      	movs	r0, #1
   8373e:	430a      	orrs	r2, r1
   83740:	2108      	movs	r1, #8
   83742:	601a      	str	r2, [r3, #0]
   83744:	681a      	ldr	r2, [r3, #0]
   83746:	430a      	orrs	r2, r1
   83748:	601a      	str	r2, [r3, #0]
   8374a:	f644 33c1 	movw	r3, #19393	; 0x4bc1
   8374e:	f2c0 0300 	movt	r3, #0
   83752:	4798      	blx	r3
   83754:	f240 2118 	movw	r1, #536	; 0x218
   83758:	f243 0200 	movw	r2, #12288	; 0x3000
   8375c:	f6c4 0100 	movt	r1, #18432	; 0x4800
   83760:	680b      	ldr	r3, [r1, #0]
   83762:	200c      	movs	r0, #12
   83764:	4313      	orrs	r3, r2
   83766:	2214      	movs	r2, #20
   83768:	600b      	str	r3, [r1, #0]
   8376a:	680b      	ldr	r3, [r1, #0]
   8376c:	4003      	ands	r3, r0
   8376e:	2b0c      	cmp	r3, #12
   83770:	d002      	beq.n	83778 <FLASH_ClockSwitch+0x88>
   83772:	3a01      	subs	r2, #1
   83774:	2a00      	cmp	r2, #0
   83776:	d1f8      	bne.n	8376a <FLASH_ClockSwitch+0x7a>
   83778:	f240 2210 	movw	r2, #528	; 0x210
   8377c:	f6c4 0200 	movt	r2, #18432	; 0x4800
   83780:	6813      	ldr	r3, [r2, #0]
   83782:	4924      	ldr	r1, [pc, #144]	; (83814 <FLASH_ClockSwitch+0x124>)
   83784:	200a      	movs	r0, #10
   83786:	400b      	ands	r3, r1
   83788:	f240 4100 	movw	r1, #1024	; 0x400
   8378c:	430b      	orrs	r3, r1
   8378e:	6013      	str	r3, [r2, #0]
   83790:	f241 43c3 	movw	r3, #5315	; 0x14c3
   83794:	f2c0 0300 	movt	r3, #0
   83798:	4798      	blx	r3
   8379a:	f240 10f8 	movw	r0, #504	; 0x1f8
   8379e:	f2c0 0008 	movt	r0, #8
   837a2:	7f03      	ldrb	r3, [r0, #28]
   837a4:	7743      	strb	r3, [r0, #29]
   837a6:	f641 4391 	movw	r3, #7313	; 0x1c91
   837aa:	7901      	ldrb	r1, [r0, #4]
   837ac:	f2c0 0300 	movt	r3, #0
   837b0:	4798      	blx	r3
   837b2:	e7b1      	b.n	83718 <FLASH_ClockSwitch+0x28>
   837b4:	f240 2210 	movw	r2, #528	; 0x210
   837b8:	f6c4 0200 	movt	r2, #18432	; 0x4800
   837bc:	6813      	ldr	r3, [r2, #0]
   837be:	4915      	ldr	r1, [pc, #84]	; (83814 <FLASH_ClockSwitch+0x124>)
   837c0:	400b      	ands	r3, r1
   837c2:	4318      	orrs	r0, r3
   837c4:	f241 43c3 	movw	r3, #5315	; 0x14c3
   837c8:	6010      	str	r0, [r2, #0]
   837ca:	f2c0 0300 	movt	r3, #0
   837ce:	200a      	movs	r0, #10
   837d0:	4798      	blx	r3
   837d2:	f240 2318 	movw	r3, #536	; 0x218
   837d6:	f6c4 0300 	movt	r3, #18432	; 0x4800
   837da:	681a      	ldr	r2, [r3, #0]
   837dc:	490e      	ldr	r1, [pc, #56]	; (83818 <FLASH_ClockSwitch+0x128>)
   837de:	2000      	movs	r0, #0
   837e0:	400a      	ands	r2, r1
   837e2:	601a      	str	r2, [r3, #0]
   837e4:	f644 33c1 	movw	r3, #19393	; 0x4bc1
   837e8:	f2c0 0300 	movt	r3, #0
   837ec:	4798      	blx	r3
   837ee:	f240 23c0 	movw	r3, #704	; 0x2c0
   837f2:	2108      	movs	r1, #8
   837f4:	f240 10f8 	movw	r0, #504	; 0x1f8
   837f8:	f6c4 0300 	movt	r3, #18432	; 0x4800
   837fc:	681a      	ldr	r2, [r3, #0]
   837fe:	f2c0 0008 	movt	r0, #8
   83802:	438a      	bics	r2, r1
   83804:	601a      	str	r2, [r3, #0]
   83806:	681a      	ldr	r2, [r3, #0]
   83808:	4904      	ldr	r1, [pc, #16]	; (8381c <FLASH_ClockSwitch+0x12c>)
   8380a:	400a      	ands	r2, r1
   8380c:	601a      	str	r2, [r3, #0]
   8380e:	2301      	movs	r3, #1
   83810:	e7c8      	b.n	837a4 <FLASH_ClockSwitch+0xb4>
   83812:	bf00      	nop
   83814:	fffff9ff 	.word	0xfffff9ff
   83818:	ffffcfff 	.word	0xffffcfff
   8381c:	ffffbfff 	.word	0xffffbfff

00083820 <app_taskidle_handler>:
   83820:	b510      	push	{r4, lr}
   83822:	f001 f895 	bl	84950 <__TaskIdle_8721D_veneer>
   83826:	bd10      	pop	{r4, pc}

00083828 <_flash_calibration_highspeed>:
   83828:	b5f0      	push	{r4, r5, r6, r7, lr}
   8382a:	46de      	mov	lr, fp
   8382c:	4657      	mov	r7, sl
   8382e:	464e      	mov	r6, r9
   83830:	4645      	mov	r5, r8
   83832:	f644 23e5 	movw	r3, #19173	; 0x4ae5
   83836:	b5e0      	push	{r5, r6, r7, lr}
   83838:	f2c0 0300 	movt	r3, #0
   8383c:	b085      	sub	sp, #20
   8383e:	4683      	mov	fp, r0
   83840:	201e      	movs	r0, #30
   83842:	468a      	mov	sl, r1
   83844:	f240 15f8 	movw	r5, #504	; 0x1f8
   83848:	4798      	blx	r3
   8384a:	f644 38fd 	movw	r8, #19453	; 0x4bfd
   8384e:	2300      	movs	r3, #0
   83850:	2401      	movs	r4, #1
   83852:	2700      	movs	r7, #0
   83854:	f240 0901 	movw	r9, #1
   83858:	2658      	movs	r6, #88	; 0x58
   8385a:	9303      	str	r3, [sp, #12]
   8385c:	9302      	str	r3, [sp, #8]
   8385e:	f2c0 0508 	movt	r5, #8
   83862:	f2c0 0800 	movt	r8, #0
   83866:	464b      	mov	r3, r9
   83868:	f240 10f8 	movw	r0, #504	; 0x1f8
   8386c:	9301      	str	r3, [sp, #4]
   8386e:	b2e3      	uxtb	r3, r4
   83870:	9300      	str	r3, [sp, #0]
   83872:	4652      	mov	r2, sl
   83874:	2302      	movs	r3, #2
   83876:	4659      	mov	r1, fp
   83878:	f2c0 0008 	movt	r0, #8
   8387c:	47c0      	blx	r8
   8387e:	23ff      	movs	r3, #255	; 0xff
   83880:	4018      	ands	r0, r3
   83882:	5dab      	ldrb	r3, [r5, r6]
   83884:	b113      	cbz	r3, 8388c <_flash_calibration_highspeed+0x64>
   83886:	2201      	movs	r2, #1
   83888:	4313      	orrs	r3, r2
   8388a:	55ab      	strb	r3, [r5, r6]
   8388c:	42b8      	cmp	r0, r7
   8388e:	d903      	bls.n	83898 <_flash_calibration_highspeed+0x70>
   83890:	0007      	movs	r7, r0
   83892:	5dab      	ldrb	r3, [r5, r6]
   83894:	9403      	str	r4, [sp, #12]
   83896:	9302      	str	r3, [sp, #8]
   83898:	2300      	movs	r3, #0
   8389a:	3401      	adds	r4, #1
   8389c:	55ab      	strb	r3, [r5, r6]
   8389e:	2c06      	cmp	r4, #6
   838a0:	d1e1      	bne.n	83866 <_flash_calibration_highspeed+0x3e>
   838a2:	b94f      	cbnz	r7, 838b8 <_flash_calibration_highspeed+0x90>
   838a4:	2301      	movs	r3, #1
   838a6:	2000      	movs	r0, #0
   838a8:	776b      	strb	r3, [r5, #29]
   838aa:	b005      	add	sp, #20
   838ac:	bc3c      	pop	{r2, r3, r4, r5}
   838ae:	4690      	mov	r8, r2
   838b0:	4699      	mov	r9, r3
   838b2:	46a2      	mov	sl, r4
   838b4:	46ab      	mov	fp, r5
   838b6:	bdf0      	pop	{r4, r5, r6, r7, pc}
   838b8:	9b02      	ldr	r3, [sp, #8]
   838ba:	f644 10b8 	movw	r0, #18872	; 0x49b8
   838be:	4698      	mov	r8, r3
   838c0:	9c03      	ldr	r4, [sp, #12]
   838c2:	003a      	movs	r2, r7
   838c4:	0021      	movs	r1, r4
   838c6:	f2c0 0008 	movt	r0, #8
   838ca:	f77c fdd3 	bl	474 <DiagVSprintf+0x35f>
   838ce:	4643      	mov	r3, r8
   838d0:	55ab      	strb	r3, [r5, r6]
   838d2:	b2e3      	uxtb	r3, r4
   838d4:	772b      	strb	r3, [r5, #28]
   838d6:	776b      	strb	r3, [r5, #29]
   838d8:	2001      	movs	r0, #1
   838da:	e7e6      	b.n	838aa <_flash_calibration_highspeed+0x82>

000838dc <flash_calibration_highspeed>:
   838dc:	b570      	push	{r4, r5, r6, lr}
   838de:	f240 14f8 	movw	r4, #504	; 0x1f8
   838e2:	2200      	movs	r2, #0
   838e4:	2357      	movs	r3, #87	; 0x57
   838e6:	f2c0 0408 	movt	r4, #8
   838ea:	7926      	ldrb	r6, [r4, #4]
   838ec:	54e2      	strb	r2, [r4, r3]
   838ee:	f644 2349 	movw	r3, #19017	; 0x4a49
   838f2:	0005      	movs	r5, r0
   838f4:	f2c0 0300 	movt	r3, #0
   838f8:	4798      	blx	r3
   838fa:	0029      	movs	r1, r5
   838fc:	0030      	movs	r0, r6
   838fe:	f7ff ff93 	bl	83828 <_flash_calibration_highspeed>
   83902:	2801      	cmp	r0, #1
   83904:	d014      	beq.n	83930 <flash_calibration_highspeed+0x54>
   83906:	f240 2210 	movw	r2, #528	; 0x210
   8390a:	f6c4 0200 	movt	r2, #18432	; 0x4800
   8390e:	6813      	ldr	r3, [r2, #0]
   83910:	491b      	ldr	r1, [pc, #108]	; (83980 <flash_calibration_highspeed+0xa4>)
   83912:	2400      	movs	r4, #0
   83914:	400b      	ands	r3, r1
   83916:	f240 2100 	movw	r1, #512	; 0x200
   8391a:	430b      	orrs	r3, r1
   8391c:	6013      	str	r3, [r2, #0]
   8391e:	f240 13cc 	movw	r3, #460	; 0x1cc
   83922:	f2c0 0308 	movt	r3, #8
   83926:	681b      	ldr	r3, [r3, #0]
   83928:	039b      	lsls	r3, r3, #14
   8392a:	d422      	bmi.n	83972 <flash_calibration_highspeed+0x96>
   8392c:	0020      	movs	r0, r4
   8392e:	bd70      	pop	{r4, r5, r6, pc}
   83930:	f644 33c1 	movw	r3, #19393	; 0x4bc1
   83934:	f2c0 0300 	movt	r3, #0
   83938:	4798      	blx	r3
   8393a:	2358      	movs	r3, #88	; 0x58
   8393c:	5ce0      	ldrb	r0, [r4, r3]
   8393e:	f644 33a9 	movw	r3, #19369	; 0x4ba9
   83942:	f2c0 0300 	movt	r3, #0
   83946:	4798      	blx	r3
   83948:	f242 43e1 	movw	r3, #9441	; 0x24e1
   8394c:	0030      	movs	r0, r6
   8394e:	f2c0 0300 	movt	r3, #0
   83952:	4798      	blx	r3
   83954:	f240 13cc 	movw	r3, #460	; 0x1cc
   83958:	f2c0 0308 	movt	r3, #8
   8395c:	681b      	ldr	r3, [r3, #0]
   8395e:	2401      	movs	r4, #1
   83960:	039b      	lsls	r3, r3, #14
   83962:	d5e3      	bpl.n	8392c <flash_calibration_highspeed+0x50>
   83964:	f245 20c0 	movw	r0, #21184	; 0x52c0
   83968:	f6c0 4001 	movt	r0, #3073	; 0xc01
   8396c:	f77c fd82 	bl	474 <DiagVSprintf+0x35f>
   83970:	e7dc      	b.n	8392c <flash_calibration_highspeed+0x50>
   83972:	f245 20d8 	movw	r0, #21208	; 0x52d8
   83976:	f6c0 4001 	movt	r0, #3073	; 0xc01
   8397a:	f77c fd7b 	bl	474 <DiagVSprintf+0x35f>
   8397e:	e7d5      	b.n	8392c <flash_calibration_highspeed+0x50>
   83980:	fffff9ff 	.word	0xfffff9ff

00083984 <flash_rx_mode_switch>:
   83984:	b5f0      	push	{r4, r5, r6, r7, lr}
   83986:	46de      	mov	lr, fp
   83988:	4657      	mov	r7, sl
   8398a:	464e      	mov	r6, r9
   8398c:	4645      	mov	r5, r8
   8398e:	2300      	movs	r3, #0
   83990:	b5e0      	push	{r5, r6, r7, lr}
   83992:	b087      	sub	sp, #28
   83994:	aa02      	add	r2, sp, #8
   83996:	9001      	str	r0, [sp, #4]
   83998:	71d3      	strb	r3, [r2, #7]
   8399a:	2804      	cmp	r0, #4
   8399c:	d900      	bls.n	839a0 <flash_rx_mode_switch+0x1c>
   8399e:	e0a1      	b.n	83ae4 <flash_rx_mode_switch+0x160>
   839a0:	f242 4ae1 	movw	sl, #9441	; 0x24e1
   839a4:	f246 5745 	movw	r7, #25925	; 0x6545
   839a8:	f240 0800 	movw	r8, #0
   839ac:	f2c0 0700 	movt	r7, #0
   839b0:	f240 15f8 	movw	r5, #504	; 0x1f8
   839b4:	f2c0 0a00 	movt	sl, #0
   839b8:	f240 1bcc 	movw	fp, #460	; 0x1cc
   839bc:	4646      	mov	r6, r8
   839be:	0004      	movs	r4, r0
   839c0:	46b8      	mov	r8, r7
   839c2:	4657      	mov	r7, sl
   839c4:	f2c0 0508 	movt	r5, #8
   839c8:	f2c0 0b08 	movt	fp, #8
   839cc:	2c00      	cmp	r4, #0
   839ce:	d100      	bne.n	839d2 <flash_rx_mode_switch+0x4e>
   839d0:	e097      	b.n	83b02 <flash_rx_mode_switch+0x17e>
   839d2:	2c01      	cmp	r4, #1
   839d4:	d100      	bne.n	839d8 <flash_rx_mode_switch+0x54>
   839d6:	e0a4      	b.n	83b22 <flash_rx_mode_switch+0x19e>
   839d8:	2c02      	cmp	r4, #2
   839da:	d100      	bne.n	839de <flash_rx_mode_switch+0x5a>
   839dc:	e0bf      	b.n	83b5e <flash_rx_mode_switch+0x1da>
   839de:	2200      	movs	r2, #0
   839e0:	235a      	movs	r3, #90	; 0x5a
   839e2:	54ea      	strb	r2, [r5, r3]
   839e4:	2c03      	cmp	r4, #3
   839e6:	d100      	bne.n	839ea <flash_rx_mode_switch+0x66>
   839e8:	e0ac      	b.n	83b44 <flash_rx_mode_switch+0x1c0>
   839ea:	7fab      	ldrb	r3, [r5, #30]
   839ec:	f240 0900 	movw	r9, #0
   839f0:	469a      	mov	sl, r3
   839f2:	2303      	movs	r3, #3
   839f4:	60ab      	str	r3, [r5, #8]
   839f6:	682b      	ldr	r3, [r5, #0]
   839f8:	2b03      	cmp	r3, #3
   839fa:	d040      	beq.n	83a7e <flash_rx_mode_switch+0xfa>
   839fc:	2301      	movs	r3, #1
   839fe:	4648      	mov	r0, r9
   83a00:	776b      	strb	r3, [r5, #29]
   83a02:	47b8      	blx	r7
   83a04:	f64e 5300 	movw	r3, #60672	; 0xed00
   83a08:	f2ce 0300 	movt	r3, #57344	; 0xe000
   83a0c:	695a      	ldr	r2, [r3, #20]
   83a0e:	03d2      	lsls	r2, r2, #15
   83a10:	d50a      	bpl.n	83a28 <flash_rx_mode_switch+0xa4>
   83a12:	f3bf 8f4f 	dsb	sy
   83a16:	2180      	movs	r1, #128	; 0x80
   83a18:	f240 225c 	movw	r2, #604	; 0x25c
   83a1c:	0509      	lsls	r1, r1, #20
   83a1e:	5099      	str	r1, [r3, r2]
   83a20:	f3bf 8f4f 	dsb	sy
   83a24:	f3bf 8f6f 	isb	sy
   83a28:	2380      	movs	r3, #128	; 0x80
   83a2a:	051b      	lsls	r3, r3, #20
   83a2c:	681b      	ldr	r3, [r3, #0]
   83a2e:	f240 0164 	movw	r1, #100	; 0x64
   83a32:	9304      	str	r3, [sp, #16]
   83a34:	2304      	movs	r3, #4
   83a36:	f6c0 0300 	movt	r3, #2048	; 0x800
   83a3a:	681b      	ldr	r3, [r3, #0]
   83a3c:	2208      	movs	r2, #8
   83a3e:	f2c0 0102 	movt	r1, #2
   83a42:	a804      	add	r0, sp, #16
   83a44:	9305      	str	r3, [sp, #20]
   83a46:	47c0      	blx	r8
   83a48:	2800      	cmp	r0, #0
   83a4a:	d03c      	beq.n	83ac6 <flash_rx_mode_switch+0x142>
   83a4c:	2357      	movs	r3, #87	; 0x57
   83a4e:	5ceb      	ldrb	r3, [r5, r3]
   83a50:	b11b      	cbz	r3, 83a5a <flash_rx_mode_switch+0xd6>
   83a52:	465b      	mov	r3, fp
   83a54:	681b      	ldr	r3, [r3, #0]
   83a56:	039b      	lsls	r3, r3, #14
   83a58:	d42c      	bmi.n	83ab4 <flash_rx_mode_switch+0x130>
   83a5a:	3401      	adds	r4, #1
   83a5c:	b2e4      	uxtb	r4, r4
   83a5e:	3601      	adds	r6, #1
   83a60:	2c05      	cmp	r4, #5
   83a62:	d1b3      	bne.n	839cc <flash_rx_mode_switch+0x48>
   83a64:	465b      	mov	r3, fp
   83a66:	681b      	ldr	r3, [r3, #0]
   83a68:	2400      	movs	r4, #0
   83a6a:	039b      	lsls	r3, r3, #14
   83a6c:	d442      	bmi.n	83af4 <flash_rx_mode_switch+0x170>
   83a6e:	0020      	movs	r0, r4
   83a70:	b007      	add	sp, #28
   83a72:	bc3c      	pop	{r2, r3, r4, r5}
   83a74:	4690      	mov	r8, r2
   83a76:	4699      	mov	r9, r3
   83a78:	46a2      	mov	sl, r4
   83a7a:	46ab      	mov	fp, r5
   83a7c:	bdf0      	pop	{r4, r5, r6, r7, pc}
   83a7e:	ab02      	add	r3, sp, #8
   83a80:	1dda      	adds	r2, r3, #7
   83a82:	f641 531d 	movw	r3, #7453	; 0x1d1d
   83a86:	2101      	movs	r1, #1
   83a88:	2085      	movs	r0, #133	; 0x85
   83a8a:	f2c0 0300 	movt	r3, #0
   83a8e:	4798      	blx	r3
   83a90:	ab02      	add	r3, sp, #8
   83a92:	79da      	ldrb	r2, [r3, #7]
   83a94:	230f      	movs	r3, #15
   83a96:	401a      	ands	r2, r3
   83a98:	4653      	mov	r3, sl
   83a9a:	011b      	lsls	r3, r3, #4
   83a9c:	4313      	orrs	r3, r2
   83a9e:	aa02      	add	r2, sp, #8
   83aa0:	71d3      	strb	r3, [r2, #7]
   83aa2:	f242 1329 	movw	r3, #8489	; 0x2129
   83aa6:	3207      	adds	r2, #7
   83aa8:	2101      	movs	r1, #1
   83aaa:	2081      	movs	r0, #129	; 0x81
   83aac:	f2c0 0300 	movt	r3, #0
   83ab0:	4798      	blx	r3
   83ab2:	e7a3      	b.n	839fc <flash_rx_mode_switch+0x78>
   83ab4:	f245 3000 	movw	r0, #21248	; 0x5300
   83ab8:	9b01      	ldr	r3, [sp, #4]
   83aba:	f6c0 4001 	movt	r0, #3073	; 0xc01
   83abe:	1999      	adds	r1, r3, r6
   83ac0:	f77c fcd8 	bl	474 <DiagVSprintf+0x35f>
   83ac4:	e7c9      	b.n	83a5a <flash_rx_mode_switch+0xd6>
   83ac6:	465b      	mov	r3, fp
   83ac8:	681b      	ldr	r3, [r3, #0]
   83aca:	039b      	lsls	r3, r3, #14
   83acc:	d401      	bmi.n	83ad2 <flash_rx_mode_switch+0x14e>
   83ace:	2401      	movs	r4, #1
   83ad0:	e7cd      	b.n	83a6e <flash_rx_mode_switch+0xea>
   83ad2:	f245 20f0 	movw	r0, #21232	; 0x52f0
   83ad6:	0021      	movs	r1, r4
   83ad8:	f6c0 4001 	movt	r0, #3073	; 0xc01
   83adc:	f77c fcca 	bl	474 <DiagVSprintf+0x35f>
   83ae0:	2401      	movs	r4, #1
   83ae2:	e7c4      	b.n	83a6e <flash_rx_mode_switch+0xea>
   83ae4:	9b01      	ldr	r3, [sp, #4]
   83ae6:	2b05      	cmp	r3, #5
   83ae8:	d1f1      	bne.n	83ace <flash_rx_mode_switch+0x14a>
   83aea:	f240 1bcc 	movw	fp, #460	; 0x1cc
   83aee:	f2c0 0b08 	movt	fp, #8
   83af2:	e7b7      	b.n	83a64 <flash_rx_mode_switch+0xe0>
   83af4:	f245 3014 	movw	r0, #21268	; 0x5314
   83af8:	f6c0 4001 	movt	r0, #3073	; 0xc01
   83afc:	f77c fcba 	bl	474 <DiagVSprintf+0x35f>
   83b00:	e7b5      	b.n	83a6e <flash_rx_mode_switch+0xea>
   83b02:	2201      	movs	r2, #1
   83b04:	235a      	movs	r3, #90	; 0x5a
   83b06:	54ea      	strb	r2, [r5, r3]
   83b08:	f640 2310 	movw	r3, #2576	; 0xa10
   83b0c:	64ab      	str	r3, [r5, #72]	; 0x48
   83b0e:	2320      	movs	r3, #32
   83b10:	5cea      	ldrb	r2, [r5, r3]
   83b12:	f240 0902 	movw	r9, #2
   83b16:	4692      	mov	sl, r2
   83b18:	3a02      	subs	r2, #2
   83b1a:	54ea      	strb	r2, [r5, r3]
   83b1c:	33cb      	adds	r3, #203	; 0xcb
   83b1e:	60ab      	str	r3, [r5, #8]
   83b20:	e769      	b.n	839f6 <flash_rx_mode_switch+0x72>
   83b22:	2200      	movs	r2, #0
   83b24:	235a      	movs	r3, #90	; 0x5a
   83b26:	54ea      	strb	r2, [r5, r3]
   83b28:	33af      	adds	r3, #175	; 0xaf
   83b2a:	33ff      	adds	r3, #255	; 0xff
   83b2c:	64ab      	str	r3, [r5, #72]	; 0x48
   83b2e:	3be9      	subs	r3, #233	; 0xe9
   83b30:	3bff      	subs	r3, #255	; 0xff
   83b32:	3208      	adds	r2, #8
   83b34:	54ea      	strb	r2, [r5, r3]
   83b36:	334b      	adds	r3, #75	; 0x4b
   83b38:	60ab      	str	r3, [r5, #8]
   83b3a:	f240 0902 	movw	r9, #2
   83b3e:	f240 0a08 	movw	sl, #8
   83b42:	e758      	b.n	839f6 <flash_rx_mode_switch+0x72>
   83b44:	33a9      	adds	r3, #169	; 0xa9
   83b46:	33ff      	adds	r3, #255	; 0xff
   83b48:	646b      	str	r3, [r5, #68]	; 0x44
   83b4a:	3bfb      	subs	r3, #251	; 0xfb
   83b4c:	3bff      	subs	r3, #255	; 0xff
   83b4e:	77eb      	strb	r3, [r5, #31]
   83b50:	233b      	movs	r3, #59	; 0x3b
   83b52:	f240 0901 	movw	r9, #1
   83b56:	60ab      	str	r3, [r5, #8]
   83b58:	f240 0a08 	movw	sl, #8
   83b5c:	e74b      	b.n	839f6 <flash_rx_mode_switch+0x72>
   83b5e:	235a      	movs	r3, #90	; 0x5a
   83b60:	2201      	movs	r2, #1
   83b62:	54ea      	strb	r2, [r5, r3]
   83b64:	f641 2301 	movw	r3, #6657	; 0x1a01
   83b68:	646b      	str	r3, [r5, #68]	; 0x44
   83b6a:	7feb      	ldrb	r3, [r5, #31]
   83b6c:	f240 0901 	movw	r9, #1
   83b70:	469a      	mov	sl, r3
   83b72:	3b04      	subs	r3, #4
   83b74:	77eb      	strb	r3, [r5, #31]
   83b76:	23bb      	movs	r3, #187	; 0xbb
   83b78:	60ab      	str	r3, [r5, #8]
   83b7a:	e73c      	b.n	839f6 <flash_rx_mode_switch+0x72>

00083b7c <SOCPS_SWR_PFMForce>:
   83b7c:	4770      	bx	lr
   83b7e:	bf00      	nop

00083b80 <SOCPS_SNOOZE_Config>:
   83b80:	2360      	movs	r3, #96	; 0x60
   83b82:	f6c4 0300 	movt	r3, #18432	; 0x4800
   83b86:	681b      	ldr	r3, [r3, #0]
   83b88:	2901      	cmp	r1, #1
   83b8a:	d006      	beq.n	83b9a <SOCPS_SNOOZE_Config+0x1a>
   83b8c:	4383      	bics	r3, r0
   83b8e:	0018      	movs	r0, r3
   83b90:	2360      	movs	r3, #96	; 0x60
   83b92:	f6c4 0300 	movt	r3, #18432	; 0x4800
   83b96:	6018      	str	r0, [r3, #0]
   83b98:	4770      	bx	lr
   83b9a:	4318      	orrs	r0, r3
   83b9c:	e7f8      	b.n	83b90 <SOCPS_SNOOZE_Config+0x10>
   83b9e:	bf00      	nop

00083ba0 <SOCPS_PWROption>:
   83ba0:	f240 3320 	movw	r3, #800	; 0x320
   83ba4:	f6c4 0300 	movt	r3, #18432	; 0x4800
   83ba8:	6018      	str	r0, [r3, #0]
   83baa:	4770      	bx	lr

00083bac <SOCPS_AONWakeReason>:
   83bac:	235c      	movs	r3, #92	; 0x5c
   83bae:	f6c4 0300 	movt	r3, #18432	; 0x4800
   83bb2:	6818      	ldr	r0, [r3, #0]
   83bb4:	4770      	bx	lr
   83bb6:	bf00      	nop

00083bb8 <SOCPS_AONWakeClear>:
   83bb8:	235c      	movs	r3, #92	; 0x5c
   83bba:	f6c4 0300 	movt	r3, #18432	; 0x4800
   83bbe:	6018      	str	r0, [r3, #0]
   83bc0:	4770      	bx	lr
   83bc2:	bf00      	nop

00083bc4 <SOCPS_WakePinCheck>:
   83bc4:	2340      	movs	r3, #64	; 0x40
   83bc6:	f6c4 0300 	movt	r3, #18432	; 0x4800
   83bca:	6818      	ldr	r0, [r3, #0]
   83bcc:	0100      	lsls	r0, r0, #4
   83bce:	0f00      	lsrs	r0, r0, #28
   83bd0:	4770      	bx	lr
   83bd2:	bf00      	nop

00083bd4 <SOCPS_SetPeripheralClock>:
   83bd4:	f245 1390 	movw	r3, #20880	; 0x5190
   83bd8:	f2c0 0308 	movt	r3, #8
   83bdc:	681a      	ldr	r2, [r3, #0]
   83bde:	b510      	push	{r4, lr}
   83be0:	1c51      	adds	r1, r2, #1
   83be2:	d018      	beq.n	83c16 <SOCPS_SetPeripheralClock+0x42>
   83be4:	2110      	movs	r1, #16
   83be6:	e003      	b.n	83bf0 <SOCPS_SetPeripheralClock+0x1c>
   83be8:	3308      	adds	r3, #8
   83bea:	681a      	ldr	r2, [r3, #0]
   83bec:	1c54      	adds	r4, r2, #1
   83bee:	d012      	beq.n	83c16 <SOCPS_SetPeripheralClock+0x42>
   83bf0:	685c      	ldr	r4, [r3, #4]
   83bf2:	2c01      	cmp	r4, #1
   83bf4:	d1f8      	bne.n	83be8 <SOCPS_SetPeripheralClock+0x14>
   83bf6:	4211      	tst	r1, r2
   83bf8:	d0f6      	beq.n	83be8 <SOCPS_SetPeripheralClock+0x14>
   83bfa:	f240 2314 	movw	r3, #532	; 0x214
   83bfe:	f6c4 0300 	movt	r3, #18432	; 0x4800
   83c02:	681b      	ldr	r3, [r3, #0]
   83c04:	2801      	cmp	r0, #1
   83c06:	d007      	beq.n	83c18 <SOCPS_SetPeripheralClock+0x44>
   83c08:	4a05      	ldr	r2, [pc, #20]	; (83c20 <SOCPS_SetPeripheralClock+0x4c>)
   83c0a:	4013      	ands	r3, r2
   83c0c:	f240 2214 	movw	r2, #532	; 0x214
   83c10:	f6c4 0200 	movt	r2, #18432	; 0x4800
   83c14:	6013      	str	r3, [r2, #0]
   83c16:	bd10      	pop	{r4, pc}
   83c18:	2280      	movs	r2, #128	; 0x80
   83c1a:	0392      	lsls	r2, r2, #14
   83c1c:	4313      	orrs	r3, r2
   83c1e:	e7f5      	b.n	83c0c <SOCPS_SetPeripheralClock+0x38>
   83c20:	ffdfffff 	.word	0xffdfffff

00083c24 <SOCPS_AONTimer>:
   83c24:	b1b8      	cbz	r0, 83c56 <SOCPS_AONTimer+0x32>
   83c26:	2304      	movs	r3, #4
   83c28:	2104      	movs	r1, #4
   83c2a:	f6c4 0300 	movt	r3, #18432	; 0x4800
   83c2e:	681a      	ldr	r2, [r3, #0]
   83c30:	438a      	bics	r2, r1
   83c32:	601a      	str	r2, [r3, #0]
   83c34:	0842      	lsrs	r2, r0, #1
   83c36:	0143      	lsls	r3, r0, #5
   83c38:	189b      	adds	r3, r3, r2
   83c3a:	0882      	lsrs	r2, r0, #2
   83c3c:	189b      	adds	r3, r3, r2
   83c3e:	0982      	lsrs	r2, r0, #6
   83c40:	189b      	adds	r3, r3, r2
   83c42:	0a42      	lsrs	r2, r0, #9
   83c44:	189b      	adds	r3, r3, r2
   83c46:	0ac0      	lsrs	r0, r0, #11
   83c48:	1818      	adds	r0, r3, r0
   83c4a:	2330      	movs	r3, #48	; 0x30
   83c4c:	0080      	lsls	r0, r0, #2
   83c4e:	0880      	lsrs	r0, r0, #2
   83c50:	f6c4 0300 	movt	r3, #18432	; 0x4800
   83c54:	6018      	str	r0, [r3, #0]
   83c56:	4770      	bx	lr

00083c58 <SOCPS_AONTimerGet>:
   83c58:	2334      	movs	r3, #52	; 0x34
   83c5a:	f647 71ff 	movw	r1, #32767	; 0x7fff
   83c5e:	f6c4 0300 	movt	r3, #18432	; 0x4800
   83c62:	b510      	push	{r4, lr}
   83c64:	681c      	ldr	r4, [r3, #0]
   83c66:	0be2      	lsrs	r2, r4, #15
   83c68:	400a      	ands	r2, r1
   83c6a:	4021      	ands	r1, r4
   83c6c:	014b      	lsls	r3, r1, #5
   83c6e:	0150      	lsls	r0, r2, #5
   83c70:	1a5b      	subs	r3, r3, r1
   83c72:	1a80      	subs	r0, r0, r2
   83c74:	009b      	lsls	r3, r3, #2
   83c76:	185b      	adds	r3, r3, r1
   83c78:	0080      	lsls	r0, r0, #2
   83c7a:	1880      	adds	r0, r0, r2
   83c7c:	00db      	lsls	r3, r3, #3
   83c7e:	0bdb      	lsrs	r3, r3, #15
   83c80:	00c0      	lsls	r0, r0, #3
   83c82:	18c0      	adds	r0, r0, r3
   83c84:	bd10      	pop	{r4, pc}
   83c86:	bf00      	nop

00083c88 <SOCPS_AONTimerCmd>:
   83c88:	2330      	movs	r3, #48	; 0x30
   83c8a:	f6c4 0300 	movt	r3, #18432	; 0x4800
   83c8e:	681a      	ldr	r2, [r3, #0]
   83c90:	b160      	cbz	r0, 83cac <SOCPS_AONTimerCmd+0x24>
   83c92:	2380      	movs	r3, #128	; 0x80
   83c94:	061b      	lsls	r3, r3, #24
   83c96:	4313      	orrs	r3, r2
   83c98:	2230      	movs	r2, #48	; 0x30
   83c9a:	f6c4 0200 	movt	r2, #18432	; 0x4800
   83c9e:	6013      	str	r3, [r2, #0]
   83ca0:	235c      	movs	r3, #92	; 0x5c
   83ca2:	2202      	movs	r2, #2
   83ca4:	f6c4 0300 	movt	r3, #18432	; 0x4800
   83ca8:	601a      	str	r2, [r3, #0]
   83caa:	4770      	bx	lr
   83cac:	0053      	lsls	r3, r2, #1
   83cae:	085b      	lsrs	r3, r3, #1
   83cb0:	e7f2      	b.n	83c98 <SOCPS_AONTimerCmd+0x10>
   83cb2:	bf00      	nop

00083cb4 <SOCPS_AONTSF>:
   83cb4:	f245 5350 	movw	r3, #21840	; 0x5550
   83cb8:	f2c0 0308 	movt	r3, #8
   83cbc:	681a      	ldr	r2, [r3, #0]
   83cbe:	b570      	push	{r4, r5, r6, lr}
   83cc0:	0004      	movs	r4, r0
   83cc2:	000d      	movs	r5, r1
   83cc4:	b962      	cbnz	r2, 83ce0 <SOCPS_AONTSF+0x2c>
   83cc6:	3201      	adds	r2, #1
   83cc8:	601a      	str	r2, [r3, #0]
   83cca:	2120      	movs	r1, #32
   83ccc:	2000      	movs	r0, #0
   83cce:	f644 7309 	movw	r3, #20233	; 0x4f09
   83cd2:	f2c8 0100 	movt	r1, #32768	; 0x8000
   83cd6:	f2c4 0010 	movt	r0, #16400	; 0x4010
   83cda:	f2c0 0300 	movt	r3, #0
   83cde:	4798      	blx	r3
   83ce0:	2390      	movs	r3, #144	; 0x90
   83ce2:	2294      	movs	r2, #148	; 0x94
   83ce4:	00ed      	lsls	r5, r5, #3
   83ce6:	0a2d      	lsrs	r5, r5, #8
   83ce8:	f6c4 0300 	movt	r3, #18432	; 0x4800
   83cec:	601d      	str	r5, [r3, #0]
   83cee:	f6c4 0200 	movt	r2, #18432	; 0x4800
   83cf2:	6813      	ldr	r3, [r2, #0]
   83cf4:	02e4      	lsls	r4, r4, #11
   83cf6:	0c1b      	lsrs	r3, r3, #16
   83cf8:	041b      	lsls	r3, r3, #16
   83cfa:	0c24      	lsrs	r4, r4, #16
   83cfc:	431c      	orrs	r4, r3
   83cfe:	6014      	str	r4, [r2, #0]
   83d00:	bd70      	pop	{r4, r5, r6, pc}
   83d02:	bf00      	nop

00083d04 <SOCPS_AONTSF_Reset>:
   83d04:	2398      	movs	r3, #152	; 0x98
   83d06:	f6c4 0300 	movt	r3, #18432	; 0x4800
   83d0a:	681a      	ldr	r2, [r3, #0]
   83d0c:	601a      	str	r2, [r3, #0]
   83d0e:	4770      	bx	lr

00083d10 <SOCPS_SetWakepin>:
   83d10:	225c      	movs	r2, #92	; 0x5c
   83d12:	2301      	movs	r3, #1
   83d14:	f6c4 0200 	movt	r2, #18432	; 0x4800
   83d18:	b510      	push	{r4, lr}
   83d1a:	6013      	str	r3, [r2, #0]
   83d1c:	223c      	movs	r2, #60	; 0x3c
   83d1e:	f6c4 0200 	movt	r2, #18432	; 0x4800
   83d22:	6814      	ldr	r4, [r2, #0]
   83d24:	439c      	bics	r4, r3
   83d26:	6014      	str	r4, [r2, #0]
   83d28:	2240      	movs	r2, #64	; 0x40
   83d2a:	f6c4 0200 	movt	r2, #18432	; 0x4800
   83d2e:	6812      	ldr	r2, [r2, #0]
   83d30:	4083      	lsls	r3, r0
   83d32:	2901      	cmp	r1, #1
   83d34:	d00d      	beq.n	83d52 <SOCPS_SetWakepin+0x42>
   83d36:	439a      	bics	r2, r3
   83d38:	0013      	movs	r3, r2
   83d3a:	2240      	movs	r2, #64	; 0x40
   83d3c:	f6c4 0200 	movt	r2, #18432	; 0x4800
   83d40:	6013      	str	r3, [r2, #0]
   83d42:	233c      	movs	r3, #60	; 0x3c
   83d44:	2101      	movs	r1, #1
   83d46:	f6c4 0300 	movt	r3, #18432	; 0x4800
   83d4a:	681a      	ldr	r2, [r3, #0]
   83d4c:	430a      	orrs	r2, r1
   83d4e:	601a      	str	r2, [r3, #0]
   83d50:	bd10      	pop	{r4, pc}
   83d52:	4313      	orrs	r3, r2
   83d54:	e7f1      	b.n	83d3a <SOCPS_SetWakepin+0x2a>
   83d56:	bf00      	nop

00083d58 <SOCPS_SYSIrq>:
   83d58:	b510      	push	{r4, lr}
   83d5a:	f000 fad3 	bl	84304 <SOCPS_SleepDeInit>
   83d5e:	f245 3354 	movw	r3, #21332	; 0x5354
   83d62:	f245 5444 	movw	r4, #21828	; 0x5544
   83d66:	f2c0 0308 	movt	r3, #8
   83d6a:	681b      	ldr	r3, [r3, #0]
   83d6c:	f2c0 0408 	movt	r4, #8
   83d70:	b143      	cbz	r3, 83d84 <SOCPS_SYSIrq+0x2c>
   83d72:	6823      	ldr	r3, [r4, #0]
   83d74:	b933      	cbnz	r3, 83d84 <SOCPS_SYSIrq+0x2c>
   83d76:	f240 13cc 	movw	r3, #460	; 0x1cc
   83d7a:	f2c0 0308 	movt	r3, #8
   83d7e:	681b      	ldr	r3, [r3, #0]
   83d80:	039b      	lsls	r3, r3, #14
   83d82:	d402      	bmi.n	83d8a <SOCPS_SYSIrq+0x32>
   83d84:	2300      	movs	r3, #0
   83d86:	6023      	str	r3, [r4, #0]
   83d88:	bd10      	pop	{r4, pc}
   83d8a:	f245 533c 	movw	r3, #21820	; 0x553c
   83d8e:	f645 1030 	movw	r0, #22832	; 0x5930
   83d92:	f2c0 0308 	movt	r3, #8
   83d96:	6819      	ldr	r1, [r3, #0]
   83d98:	f6c0 4001 	movt	r0, #3073	; 0xc01
   83d9c:	f77c fb6a 	bl	474 <DiagVSprintf+0x35f>
   83da0:	e7f0      	b.n	83d84 <SOCPS_SYSIrq+0x2c>
   83da2:	bf00      	nop

00083da4 <SOCPS_MMUBackup>:
   83da4:	f240 6200 	movw	r2, #1536	; 0x600
   83da8:	f645 13bc 	movw	r3, #22972	; 0x59bc
   83dac:	21f4      	movs	r1, #244	; 0xf4
   83dae:	f6c4 0200 	movt	r2, #18432	; 0x4800
   83db2:	6b10      	ldr	r0, [r2, #48]	; 0x30
   83db4:	f2c0 0308 	movt	r3, #8
   83db8:	5058      	str	r0, [r3, r1]
   83dba:	6b90      	ldr	r0, [r2, #56]	; 0x38
   83dbc:	3108      	adds	r1, #8
   83dbe:	5058      	str	r0, [r3, r1]
   83dc0:	6bd0      	ldr	r0, [r2, #60]	; 0x3c
   83dc2:	3104      	adds	r1, #4
   83dc4:	5058      	str	r0, [r3, r1]
   83dc6:	6b50      	ldr	r0, [r2, #52]	; 0x34
   83dc8:	3908      	subs	r1, #8
   83dca:	5058      	str	r0, [r3, r1]
   83dcc:	6c10      	ldr	r0, [r2, #64]	; 0x40
   83dce:	310c      	adds	r1, #12
   83dd0:	5058      	str	r0, [r3, r1]
   83dd2:	6c90      	ldr	r0, [r2, #72]	; 0x48
   83dd4:	3108      	adds	r1, #8
   83dd6:	5058      	str	r0, [r3, r1]
   83dd8:	6cd0      	ldr	r0, [r2, #76]	; 0x4c
   83dda:	3104      	adds	r1, #4
   83ddc:	5058      	str	r0, [r3, r1]
   83dde:	6c51      	ldr	r1, [r2, #68]	; 0x44
   83de0:	f240 1208 	movw	r2, #264	; 0x108
   83de4:	5099      	str	r1, [r3, r2]
   83de6:	4770      	bx	lr

00083de8 <SOCPS_MMUReFill>:
   83de8:	f645 13bc 	movw	r3, #22972	; 0x59bc
   83dec:	22f4      	movs	r2, #244	; 0xf4
   83dee:	f2c0 0308 	movt	r3, #8
   83df2:	5899      	ldr	r1, [r3, r2]
   83df4:	f240 6200 	movw	r2, #1536	; 0x600
   83df8:	f6c4 0200 	movt	r2, #18432	; 0x4800
   83dfc:	6311      	str	r1, [r2, #48]	; 0x30
   83dfe:	21fc      	movs	r1, #252	; 0xfc
   83e00:	5859      	ldr	r1, [r3, r1]
   83e02:	6391      	str	r1, [r2, #56]	; 0x38
   83e04:	f240 1100 	movw	r1, #256	; 0x100
   83e08:	5859      	ldr	r1, [r3, r1]
   83e0a:	63d1      	str	r1, [r2, #60]	; 0x3c
   83e0c:	21f8      	movs	r1, #248	; 0xf8
   83e0e:	5859      	ldr	r1, [r3, r1]
   83e10:	6351      	str	r1, [r2, #52]	; 0x34
   83e12:	f240 1104 	movw	r1, #260	; 0x104
   83e16:	5859      	ldr	r1, [r3, r1]
   83e18:	6411      	str	r1, [r2, #64]	; 0x40
   83e1a:	f240 110c 	movw	r1, #268	; 0x10c
   83e1e:	5859      	ldr	r1, [r3, r1]
   83e20:	6491      	str	r1, [r2, #72]	; 0x48
   83e22:	f240 1110 	movw	r1, #272	; 0x110
   83e26:	5859      	ldr	r1, [r3, r1]
   83e28:	64d1      	str	r1, [r2, #76]	; 0x4c
   83e2a:	f240 1108 	movw	r1, #264	; 0x108
   83e2e:	585b      	ldr	r3, [r3, r1]
   83e30:	6453      	str	r3, [r2, #68]	; 0x44
   83e32:	4770      	bx	lr

00083e34 <SOCPS_WakeFromPG>:
   83e34:	b510      	push	{r4, lr}
   83e36:	f7ff ffd7 	bl	83de8 <SOCPS_MMUReFill>
   83e3a:	2000      	movs	r0, #0
   83e3c:	f000 fd60 	bl	84900 <__km4_flash_highspeed_resume_veneer>
   83e40:	f644 7394 	movw	r3, #20372	; 0x4f94
   83e44:	f2c0 0308 	movt	r3, #8
   83e48:	689b      	ldr	r3, [r3, #8]
   83e4a:	b133      	cbz	r3, 83e5a <SOCPS_WakeFromPG+0x26>
   83e4c:	f240 13cc 	movw	r3, #460	; 0x1cc
   83e50:	f2c0 0308 	movt	r3, #8
   83e54:	681b      	ldr	r3, [r3, #0]
   83e56:	039b      	lsls	r3, r3, #14
   83e58:	d462      	bmi.n	83f20 <SOCPS_WakeFromPG+0xec>
   83e5a:	f64e 5320 	movw	r3, #60704	; 0xed20
   83e5e:	2200      	movs	r2, #0
   83e60:	f2ce 0300 	movt	r3, #57344	; 0xe000
   83e64:	f2cf 02f0 	movt	r2, #61680	; 0xf0f0
   83e68:	601a      	str	r2, [r3, #0]
   83e6a:	f240 0200 	movw	r2, #0
   83e6e:	f645 13bc 	movw	r3, #22972	; 0x59bc
   83e72:	21a4      	movs	r1, #164	; 0xa4
   83e74:	f2c0 0208 	movt	r2, #8
   83e78:	6ad0      	ldr	r0, [r2, #44]	; 0x2c
   83e7a:	f2c0 0308 	movt	r3, #8
   83e7e:	5058      	str	r0, [r3, r1]
   83e80:	f244 5131 	movw	r1, #17713	; 0x4531
   83e84:	f6c0 4100 	movt	r1, #3072	; 0xc00
   83e88:	62d1      	str	r1, [r2, #44]	; 0x2c
   83e8a:	229c      	movs	r2, #156	; 0x9c
   83e8c:	2080      	movs	r0, #128	; 0x80
   83e8e:	5899      	ldr	r1, [r3, r2]
   83e90:	6c1c      	ldr	r4, [r3, #64]	; 0x40
   83e92:	0440      	lsls	r0, r0, #17
   83e94:	4320      	orrs	r0, r4
   83e96:	3904      	subs	r1, #4
   83e98:	6008      	str	r0, [r1, #0]
   83e9a:	5899      	ldr	r1, [r3, r2]
   83e9c:	6bd8      	ldr	r0, [r3, #60]	; 0x3c
   83e9e:	3908      	subs	r1, #8
   83ea0:	6008      	str	r0, [r1, #0]
   83ea2:	5899      	ldr	r1, [r3, r2]
   83ea4:	6b98      	ldr	r0, [r3, #56]	; 0x38
   83ea6:	390c      	subs	r1, #12
   83ea8:	6008      	str	r0, [r1, #0]
   83eaa:	5899      	ldr	r1, [r3, r2]
   83eac:	6b18      	ldr	r0, [r3, #48]	; 0x30
   83eae:	3910      	subs	r1, #16
   83eb0:	6008      	str	r0, [r1, #0]
   83eb2:	5899      	ldr	r1, [r3, r2]
   83eb4:	68d8      	ldr	r0, [r3, #12]
   83eb6:	3914      	subs	r1, #20
   83eb8:	6008      	str	r0, [r1, #0]
   83eba:	5899      	ldr	r1, [r3, r2]
   83ebc:	6898      	ldr	r0, [r3, #8]
   83ebe:	3918      	subs	r1, #24
   83ec0:	6008      	str	r0, [r1, #0]
   83ec2:	5899      	ldr	r1, [r3, r2]
   83ec4:	6858      	ldr	r0, [r3, #4]
   83ec6:	391c      	subs	r1, #28
   83ec8:	6008      	str	r0, [r1, #0]
   83eca:	5899      	ldr	r1, [r3, r2]
   83ecc:	6818      	ldr	r0, [r3, #0]
   83ece:	3920      	subs	r1, #32
   83ed0:	6008      	str	r0, [r1, #0]
   83ed2:	5899      	ldr	r1, [r3, r2]
   83ed4:	69d8      	ldr	r0, [r3, #28]
   83ed6:	3924      	subs	r1, #36	; 0x24
   83ed8:	6008      	str	r0, [r1, #0]
   83eda:	5899      	ldr	r1, [r3, r2]
   83edc:	6998      	ldr	r0, [r3, #24]
   83ede:	3928      	subs	r1, #40	; 0x28
   83ee0:	6008      	str	r0, [r1, #0]
   83ee2:	5899      	ldr	r1, [r3, r2]
   83ee4:	6958      	ldr	r0, [r3, #20]
   83ee6:	392c      	subs	r1, #44	; 0x2c
   83ee8:	6008      	str	r0, [r1, #0]
   83eea:	5899      	ldr	r1, [r3, r2]
   83eec:	6918      	ldr	r0, [r3, #16]
   83eee:	3930      	subs	r1, #48	; 0x30
   83ef0:	6008      	str	r0, [r1, #0]
   83ef2:	5899      	ldr	r1, [r3, r2]
   83ef4:	6ad8      	ldr	r0, [r3, #44]	; 0x2c
   83ef6:	3934      	subs	r1, #52	; 0x34
   83ef8:	6008      	str	r0, [r1, #0]
   83efa:	5899      	ldr	r1, [r3, r2]
   83efc:	6a98      	ldr	r0, [r3, #40]	; 0x28
   83efe:	3938      	subs	r1, #56	; 0x38
   83f00:	6008      	str	r0, [r1, #0]
   83f02:	5899      	ldr	r1, [r3, r2]
   83f04:	6a58      	ldr	r0, [r3, #36]	; 0x24
   83f06:	393c      	subs	r1, #60	; 0x3c
   83f08:	6008      	str	r0, [r1, #0]
   83f0a:	5899      	ldr	r1, [r3, r2]
   83f0c:	6a18      	ldr	r0, [r3, #32]
   83f0e:	3940      	subs	r1, #64	; 0x40
   83f10:	6008      	str	r0, [r1, #0]
   83f12:	5899      	ldr	r1, [r3, r2]
   83f14:	3940      	subs	r1, #64	; 0x40
   83f16:	5099      	str	r1, [r3, r2]
   83f18:	b662      	cpsie	i
   83f1a:	df00      	svc	0
   83f1c:	46c0      	nop			; (mov r8, r8)
   83f1e:	bd10      	pop	{r4, pc}
   83f20:	f645 1030 	movw	r0, #22832	; 0x5930
   83f24:	f6c0 4001 	movt	r0, #3073	; 0xc01
   83f28:	3024      	adds	r0, #36	; 0x24
   83f2a:	f77c faa3 	bl	474 <DiagVSprintf+0x35f>
   83f2e:	e794      	b.n	83e5a <SOCPS_WakeFromPG+0x26>

00083f30 <SOCPS_TimingTest>:
   83f30:	b5f0      	push	{r4, r5, r6, r7, lr}
   83f32:	4657      	mov	r7, sl
   83f34:	46de      	mov	lr, fp
   83f36:	464e      	mov	r6, r9
   83f38:	4645      	mov	r5, r8
   83f3a:	f644 7394 	movw	r3, #20372	; 0x4f94
   83f3e:	b5e0      	push	{r5, r6, r7, lr}
   83f40:	f2c0 0308 	movt	r3, #8
   83f44:	6ada      	ldr	r2, [r3, #44]	; 0x2c
   83f46:	6a58      	ldr	r0, [r3, #36]	; 0x24
   83f48:	6b19      	ldr	r1, [r3, #48]	; 0x30
   83f4a:	b08d      	sub	sp, #52	; 0x34
   83f4c:	1a51      	subs	r1, r2, r1
   83f4e:	1a82      	subs	r2, r0, r2
   83f50:	9201      	str	r2, [sp, #4]
   83f52:	6a9a      	ldr	r2, [r3, #40]	; 0x28
   83f54:	6a1b      	ldr	r3, [r3, #32]
   83f56:	1a17      	subs	r7, r2, r0
   83f58:	1ad3      	subs	r3, r2, r3
   83f5a:	469a      	mov	sl, r3
   83f5c:	f245 33e8 	movw	r3, #21480	; 0x53e8
   83f60:	f2c0 0308 	movt	r3, #8
   83f64:	681a      	ldr	r2, [r3, #0]
   83f66:	2a13      	cmp	r2, #19
   83f68:	d901      	bls.n	83f6e <SOCPS_TimingTest+0x3e>
   83f6a:	2200      	movs	r2, #0
   83f6c:	601a      	str	r2, [r3, #0]
   83f6e:	f242 720f 	movw	r2, #9999	; 0x270f
   83f72:	4297      	cmp	r7, r2
   83f74:	d801      	bhi.n	83f7a <SOCPS_TimingTest+0x4a>
   83f76:	4592      	cmp	sl, r2
   83f78:	d926      	bls.n	83fc8 <SOCPS_TimingTest+0x98>
   83f7a:	f245 5334 	movw	r3, #21812	; 0x5534
   83f7e:	f2c0 0308 	movt	r3, #8
   83f82:	681a      	ldr	r2, [r3, #0]
   83f84:	f245 33f0 	movw	r3, #21488	; 0x53f0
   83f88:	f2c0 0308 	movt	r3, #8
   83f8c:	681b      	ldr	r3, [r3, #0]
   83f8e:	4698      	mov	r8, r3
   83f90:	f245 33ec 	movw	r3, #21484	; 0x53ec
   83f94:	f2c0 0308 	movt	r3, #8
   83f98:	681b      	ldr	r3, [r3, #0]
   83f9a:	9302      	str	r3, [sp, #8]
   83f9c:	f245 5338 	movw	r3, #21816	; 0x5538
   83fa0:	f2c0 0308 	movt	r3, #8
   83fa4:	681e      	ldr	r6, [r3, #0]
   83fa6:	f240 14cc 	movw	r4, #460	; 0x1cc
   83faa:	2580      	movs	r5, #128	; 0x80
   83fac:	f2c0 0408 	movt	r4, #8
   83fb0:	6823      	ldr	r3, [r4, #0]
   83fb2:	02ad      	lsls	r5, r5, #10
   83fb4:	422b      	tst	r3, r5
   83fb6:	d000      	beq.n	83fba <SOCPS_TimingTest+0x8a>
   83fb8:	e074      	b.n	840a4 <SOCPS_TimingTest+0x174>
   83fba:	b00d      	add	sp, #52	; 0x34
   83fbc:	bc3c      	pop	{r2, r3, r4, r5}
   83fbe:	4690      	mov	r8, r2
   83fc0:	4699      	mov	r9, r3
   83fc2:	46a2      	mov	sl, r4
   83fc4:	46ab      	mov	fp, r5
   83fc6:	bdf0      	pop	{r4, r5, r6, r7, pc}
   83fc8:	9c01      	ldr	r4, [sp, #4]
   83fca:	4294      	cmp	r4, r2
   83fcc:	d8d5      	bhi.n	83f7a <SOCPS_TimingTest+0x4a>
   83fce:	f248 629f 	movw	r2, #34463	; 0x869f
   83fd2:	f2c0 0201 	movt	r2, #1
   83fd6:	4291      	cmp	r1, r2
   83fd8:	d8cf      	bhi.n	83f7a <SOCPS_TimingTest+0x4a>
   83fda:	f245 5534 	movw	r5, #21812	; 0x5534
   83fde:	f2c0 0508 	movt	r5, #8
   83fe2:	950b      	str	r5, [sp, #44]	; 0x2c
   83fe4:	682d      	ldr	r5, [r5, #0]
   83fe6:	f245 4294 	movw	r2, #21652	; 0x5494
   83fea:	46ac      	mov	ip, r5
   83fec:	448c      	add	ip, r1
   83fee:	4665      	mov	r5, ip
   83ff0:	f245 4c44 	movw	ip, #21572	; 0x5444
   83ff4:	f2c0 0c08 	movt	ip, #8
   83ff8:	9509      	str	r5, [sp, #36]	; 0x24
   83ffa:	4665      	mov	r5, ip
   83ffc:	f2c0 0208 	movt	r2, #8
   84000:	0010      	movs	r0, r2
   84002:	681a      	ldr	r2, [r3, #0]
   84004:	f245 3bf4 	movw	fp, #21492	; 0x53f4
   84008:	0092      	lsls	r2, r2, #2
   8400a:	5955      	ldr	r5, [r2, r5]
   8400c:	900a      	str	r0, [sp, #40]	; 0x28
   8400e:	9503      	str	r5, [sp, #12]
   84010:	f245 35f0 	movw	r5, #21488	; 0x53f0
   84014:	5810      	ldr	r0, [r2, r0]
   84016:	f2c0 0508 	movt	r5, #8
   8401a:	9002      	str	r0, [sp, #8]
   8401c:	0026      	movs	r6, r4
   8401e:	0020      	movs	r0, r4
   84020:	682c      	ldr	r4, [r5, #0]
   84022:	f2c0 0b08 	movt	fp, #8
   84026:	46a0      	mov	r8, r4
   84028:	465c      	mov	r4, fp
   8402a:	f245 39ec 	movw	r9, #21484	; 0x53ec
   8402e:	5914      	ldr	r4, [r2, r4]
   84030:	f2c0 0908 	movt	r9, #8
   84034:	9404      	str	r4, [sp, #16]
   84036:	464c      	mov	r4, r9
   84038:	6824      	ldr	r4, [r4, #0]
   8403a:	4446      	add	r6, r8
   8403c:	46a0      	mov	r8, r4
   8403e:	44b8      	add	r8, r7
   84040:	4644      	mov	r4, r8
   84042:	f245 48e4 	movw	r8, #21732	; 0x54e4
   84046:	f2c0 0808 	movt	r8, #8
   8404a:	9407      	str	r4, [sp, #28]
   8404c:	4644      	mov	r4, r8
   8404e:	5914      	ldr	r4, [r2, r4]
   84050:	9608      	str	r6, [sp, #32]
   84052:	9405      	str	r4, [sp, #20]
   84054:	f245 5438 	movw	r4, #21816	; 0x5538
   84058:	f2c0 0408 	movt	r4, #8
   8405c:	6826      	ldr	r6, [r4, #0]
   8405e:	4456      	add	r6, sl
   84060:	9606      	str	r6, [sp, #24]
   84062:	9e0a      	ldr	r6, [sp, #40]	; 0x28
   84064:	5191      	str	r1, [r2, r6]
   84066:	4666      	mov	r6, ip
   84068:	5190      	str	r0, [r2, r6]
   8406a:	465e      	mov	r6, fp
   8406c:	4640      	mov	r0, r8
   8406e:	5197      	str	r7, [r2, r6]
   84070:	4656      	mov	r6, sl
   84072:	5016      	str	r6, [r2, r0]
   84074:	9802      	ldr	r0, [sp, #8]
   84076:	9a09      	ldr	r2, [sp, #36]	; 0x24
   84078:	9e08      	ldr	r6, [sp, #32]
   8407a:	1a12      	subs	r2, r2, r0
   8407c:	980b      	ldr	r0, [sp, #44]	; 0x2c
   8407e:	6002      	str	r2, [r0, #0]
   84080:	9803      	ldr	r0, [sp, #12]
   84082:	1a30      	subs	r0, r6, r0
   84084:	6028      	str	r0, [r5, #0]
   84086:	4680      	mov	r8, r0
   84088:	9d07      	ldr	r5, [sp, #28]
   8408a:	9804      	ldr	r0, [sp, #16]
   8408c:	9e06      	ldr	r6, [sp, #24]
   8408e:	1a28      	subs	r0, r5, r0
   84090:	464d      	mov	r5, r9
   84092:	9002      	str	r0, [sp, #8]
   84094:	6028      	str	r0, [r5, #0]
   84096:	9805      	ldr	r0, [sp, #20]
   84098:	1a36      	subs	r6, r6, r0
   8409a:	6818      	ldr	r0, [r3, #0]
   8409c:	6026      	str	r6, [r4, #0]
   8409e:	3001      	adds	r0, #1
   840a0:	6018      	str	r0, [r3, #0]
   840a2:	e780      	b.n	83fa6 <SOCPS_TimingTest+0x76>
   840a4:	f240 0b14 	movw	fp, #20
   840a8:	f645 1930 	movw	r9, #22832	; 0x5930
   840ac:	fbb2 f2fb 	udiv	r2, r2, fp
   840b0:	4816      	ldr	r0, [pc, #88]	; (8410c <SOCPS_TimingTest+0x1dc>)
   840b2:	f77c f9df 	bl	474 <DiagVSprintf+0x35f>
   840b6:	6823      	ldr	r3, [r4, #0]
   840b8:	f6c0 4901 	movt	r9, #3073	; 0xc01
   840bc:	422b      	tst	r3, r5
   840be:	d100      	bne.n	840c2 <SOCPS_TimingTest+0x192>
   840c0:	e77b      	b.n	83fba <SOCPS_TimingTest+0x8a>
   840c2:	fbb8 f2fb 	udiv	r2, r8, fp
   840c6:	9901      	ldr	r1, [sp, #4]
   840c8:	4810      	ldr	r0, [pc, #64]	; (8410c <SOCPS_TimingTest+0x1dc>)
   840ca:	f77c f9d3 	bl	474 <DiagVSprintf+0x35f>
   840ce:	6823      	ldr	r3, [r4, #0]
   840d0:	422b      	tst	r3, r5
   840d2:	d100      	bne.n	840d6 <SOCPS_TimingTest+0x1a6>
   840d4:	e771      	b.n	83fba <SOCPS_TimingTest+0x8a>
   840d6:	9b02      	ldr	r3, [sp, #8]
   840d8:	0039      	movs	r1, r7
   840da:	fbb3 f2fb 	udiv	r2, r3, fp
   840de:	480b      	ldr	r0, [pc, #44]	; (8410c <SOCPS_TimingTest+0x1dc>)
   840e0:	f77c f9c8 	bl	474 <DiagVSprintf+0x35f>
   840e4:	6823      	ldr	r3, [r4, #0]
   840e6:	422b      	tst	r3, r5
   840e8:	d100      	bne.n	840ec <SOCPS_TimingTest+0x1bc>
   840ea:	e766      	b.n	83fba <SOCPS_TimingTest+0x8a>
   840ec:	fbb6 f2fb 	udiv	r2, r6, fp
   840f0:	4651      	mov	r1, sl
   840f2:	4806      	ldr	r0, [pc, #24]	; (8410c <SOCPS_TimingTest+0x1dc>)
   840f4:	f77c f9be 	bl	474 <DiagVSprintf+0x35f>
   840f8:	6823      	ldr	r3, [r4, #0]
   840fa:	422b      	tst	r3, r5
   840fc:	d100      	bne.n	84100 <SOCPS_TimingTest+0x1d0>
   840fe:	e75c      	b.n	83fba <SOCPS_TimingTest+0x8a>
   84100:	4648      	mov	r0, r9
   84102:	3044      	adds	r0, #68	; 0x44
   84104:	f77c f9b6 	bl	474 <DiagVSprintf+0x35f>
   84108:	e757      	b.n	83fba <SOCPS_TimingTest+0x8a>
   8410a:	bf00      	nop
   8410c:	0c015968 	.word	0x0c015968

00084110 <SOCPS_KM4Wake>:
   84110:	f644 634c 	movw	r3, #20044	; 0x4e4c
   84114:	b5f0      	push	{r4, r5, r6, r7, lr}
   84116:	46c6      	mov	lr, r8
   84118:	f2c0 0308 	movt	r3, #8
   8411c:	681a      	ldr	r2, [r3, #0]
   8411e:	b500      	push	{lr}
   84120:	1c51      	adds	r1, r2, #1
   84122:	d052      	beq.n	841ca <SOCPS_KM4Wake+0xba>
   84124:	f245 5c58 	movw	ip, #21848	; 0x5558
   84128:	f245 5848 	movw	r8, #21832	; 0x5548
   8412c:	f2c0 0c08 	movt	ip, #8
   84130:	4661      	mov	r1, ip
   84132:	f2c0 0808 	movt	r8, #8
   84136:	6808      	ldr	r0, [r1, #0]
   84138:	4641      	mov	r1, r8
   8413a:	2600      	movs	r6, #0
   8413c:	680c      	ldr	r4, [r1, #0]
   8413e:	2500      	movs	r5, #0
   84140:	f240 3104 	movw	r1, #772	; 0x304
   84144:	e00a      	b.n	8415c <SOCPS_KM4Wake+0x4c>
   84146:	428a      	cmp	r2, r1
   84148:	d037      	beq.n	841ba <SOCPS_KM4Wake+0xaa>
   8414a:	2a5c      	cmp	r2, #92	; 0x5c
   8414c:	d102      	bne.n	84154 <SOCPS_KM4Wake+0x44>
   8414e:	2601      	movs	r6, #1
   84150:	685a      	ldr	r2, [r3, #4]
   84152:	4394      	bics	r4, r2
   84154:	330c      	adds	r3, #12
   84156:	681a      	ldr	r2, [r3, #0]
   84158:	1c57      	adds	r7, r2, #1
   8415a:	d00d      	beq.n	84178 <SOCPS_KM4Wake+0x68>
   8415c:	689f      	ldr	r7, [r3, #8]
   8415e:	2f01      	cmp	r7, #1
   84160:	d1f1      	bne.n	84146 <SOCPS_KM4Wake+0x36>
   84162:	428a      	cmp	r2, r1
   84164:	d02d      	beq.n	841c2 <SOCPS_KM4Wake+0xb2>
   84166:	2a5c      	cmp	r2, #92	; 0x5c
   84168:	d1f4      	bne.n	84154 <SOCPS_KM4Wake+0x44>
   8416a:	685a      	ldr	r2, [r3, #4]
   8416c:	330c      	adds	r3, #12
   8416e:	4314      	orrs	r4, r2
   84170:	681a      	ldr	r2, [r3, #0]
   84172:	2601      	movs	r6, #1
   84174:	1c57      	adds	r7, r2, #1
   84176:	d1f1      	bne.n	8415c <SOCPS_KM4Wake+0x4c>
   84178:	2d00      	cmp	r5, #0
   8417a:	d131      	bne.n	841e0 <SOCPS_KM4Wake+0xd0>
   8417c:	2e00      	cmp	r6, #0
   8417e:	d132      	bne.n	841e6 <SOCPS_KM4Wake+0xd6>
   84180:	f240 3300 	movw	r3, #768	; 0x300
   84184:	f245 513c 	movw	r1, #21820	; 0x553c
   84188:	f6c4 0300 	movt	r3, #18432	; 0x4800
   8418c:	f2c0 0108 	movt	r1, #8
   84190:	681e      	ldr	r6, [r3, #0]
   84192:	680a      	ldr	r2, [r1, #0]
   84194:	2358      	movs	r3, #88	; 0x58
   84196:	4032      	ands	r2, r6
   84198:	4010      	ands	r0, r2
   8419a:	f245 5240 	movw	r2, #21824	; 0x5540
   8419e:	f6c4 0300 	movt	r3, #18432	; 0x4800
   841a2:	f2c0 0208 	movt	r2, #8
   841a6:	681d      	ldr	r5, [r3, #0]
   841a8:	6813      	ldr	r3, [r2, #0]
   841aa:	402b      	ands	r3, r5
   841ac:	401c      	ands	r4, r3
   841ae:	4320      	orrs	r0, r4
   841b0:	1e43      	subs	r3, r0, #1
   841b2:	4198      	sbcs	r0, r3
   841b4:	bc04      	pop	{r2}
   841b6:	4690      	mov	r8, r2
   841b8:	bdf0      	pop	{r4, r5, r6, r7, pc}
   841ba:	685a      	ldr	r2, [r3, #4]
   841bc:	2501      	movs	r5, #1
   841be:	4390      	bics	r0, r2
   841c0:	e7c8      	b.n	84154 <SOCPS_KM4Wake+0x44>
   841c2:	685a      	ldr	r2, [r3, #4]
   841c4:	2501      	movs	r5, #1
   841c6:	4310      	orrs	r0, r2
   841c8:	e7c4      	b.n	84154 <SOCPS_KM4Wake+0x44>
   841ca:	f245 5358 	movw	r3, #21848	; 0x5558
   841ce:	f2c0 0308 	movt	r3, #8
   841d2:	6818      	ldr	r0, [r3, #0]
   841d4:	f245 5348 	movw	r3, #21832	; 0x5548
   841d8:	f2c0 0308 	movt	r3, #8
   841dc:	681c      	ldr	r4, [r3, #0]
   841de:	e7cf      	b.n	84180 <SOCPS_KM4Wake+0x70>
   841e0:	4663      	mov	r3, ip
   841e2:	6018      	str	r0, [r3, #0]
   841e4:	e7ca      	b.n	8417c <SOCPS_KM4Wake+0x6c>
   841e6:	4643      	mov	r3, r8
   841e8:	601c      	str	r4, [r3, #0]
   841ea:	e7c9      	b.n	84180 <SOCPS_KM4Wake+0x70>

000841ec <SOCPS_SleepCG>:
   841ec:	b570      	push	{r4, r5, r6, lr}
   841ee:	f644 7494 	movw	r4, #20372	; 0x4f94
   841f2:	f2c0 0408 	movt	r4, #8
   841f6:	68a3      	ldr	r3, [r4, #8]
   841f8:	b133      	cbz	r3, 84208 <SOCPS_SleepCG+0x1c>
   841fa:	f240 13cc 	movw	r3, #460	; 0x1cc
   841fe:	f2c0 0308 	movt	r3, #8
   84202:	681b      	ldr	r3, [r3, #0]
   84204:	039b      	lsls	r3, r3, #14
   84206:	d461      	bmi.n	842cc <SOCPS_SleepCG+0xe0>
   84208:	f240 23f4 	movw	r3, #756	; 0x2f4
   8420c:	2200      	movs	r2, #0
   8420e:	f6c4 0300 	movt	r3, #18432	; 0x4800
   84212:	601a      	str	r2, [r3, #0]
   84214:	f000 fb8c 	bl	84930 <__pmu_exec_sleep_hook_funs_veneer>
   84218:	0005      	movs	r5, r0
   8421a:	281f      	cmp	r0, #31
   8421c:	d00b      	beq.n	84236 <SOCPS_SleepCG+0x4a>
   8421e:	f000 fb67 	bl	848f0 <__pmu_exec_wakeup_hook_funs_veneer>
   84222:	f240 13cc 	movw	r3, #460	; 0x1cc
   84226:	f2c0 0308 	movt	r3, #8
   8422a:	681b      	ldr	r3, [r3, #0]
   8422c:	039b      	lsls	r3, r3, #14
   8422e:	d455      	bmi.n	842dc <SOCPS_SleepCG+0xf0>
   84230:	f000 f868 	bl	84304 <SOCPS_SleepDeInit>
   84234:	bd70      	pop	{r4, r5, r6, pc}
   84236:	f242 2080 	movw	r0, #8832	; 0x2280
   8423a:	f643 138d 	movw	r3, #14733	; 0x398d
   8423e:	f6c4 0000 	movt	r0, #18432	; 0x4800
   84242:	f2c0 0300 	movt	r3, #0
   84246:	4798      	blx	r3
   84248:	f245 5344 	movw	r3, #21828	; 0x5544
   8424c:	2201      	movs	r2, #1
   8424e:	2504      	movs	r5, #4
   84250:	2680      	movs	r6, #128	; 0x80
   84252:	302d      	adds	r0, #45	; 0x2d
   84254:	30ff      	adds	r0, #255	; 0xff
   84256:	f2c0 0308 	movt	r3, #8
   8425a:	601a      	str	r2, [r3, #0]
   8425c:	f6c4 0500 	movt	r5, #18432	; 0x4800
   84260:	62a0      	str	r0, [r4, #40]	; 0x28
   84262:	682b      	ldr	r3, [r5, #0]
   84264:	2001      	movs	r0, #1
   84266:	43b3      	bics	r3, r6
   84268:	602b      	str	r3, [r5, #0]
   8426a:	f7ff fcb3 	bl	83bd4 <SOCPS_SetPeripheralClock>
   8426e:	f000 f951 	bl	84514 <SOCPS_SleepCG_RAM>
   84272:	682b      	ldr	r3, [r5, #0]
   84274:	2000      	movs	r0, #0
   84276:	4333      	orrs	r3, r6
   84278:	602b      	str	r3, [r5, #0]
   8427a:	f7ff fcab 	bl	83bd4 <SOCPS_SetPeripheralClock>
   8427e:	f240 3304 	movw	r3, #772	; 0x304
   84282:	f245 563c 	movw	r6, #21820	; 0x553c
   84286:	f6c4 0300 	movt	r3, #18432	; 0x4800
   8428a:	681b      	ldr	r3, [r3, #0]
   8428c:	f2c0 0608 	movt	r6, #8
   84290:	6033      	str	r3, [r6, #0]
   84292:	235c      	movs	r3, #92	; 0x5c
   84294:	f245 5540 	movw	r5, #21824	; 0x5540
   84298:	f6c4 0300 	movt	r3, #18432	; 0x4800
   8429c:	681b      	ldr	r3, [r3, #0]
   8429e:	f2c0 0508 	movt	r5, #8
   842a2:	201f      	movs	r0, #31
   842a4:	602b      	str	r3, [r5, #0]
   842a6:	f000 fb23 	bl	848f0 <__pmu_exec_wakeup_hook_funs_veneer>
   842aa:	68a3      	ldr	r3, [r4, #8]
   842ac:	b133      	cbz	r3, 842bc <SOCPS_SleepCG+0xd0>
   842ae:	f240 13cc 	movw	r3, #460	; 0x1cc
   842b2:	f2c0 0308 	movt	r3, #8
   842b6:	681b      	ldr	r3, [r3, #0]
   842b8:	039b      	lsls	r3, r3, #14
   842ba:	d418      	bmi.n	842ee <SOCPS_SleepCG+0x102>
   842bc:	f7ff ff28 	bl	84110 <SOCPS_KM4Wake>
   842c0:	2801      	cmp	r0, #1
   842c2:	d1b7      	bne.n	84234 <SOCPS_SleepCG+0x48>
   842c4:	307f      	adds	r0, #127	; 0x7f
   842c6:	f000 fb4b 	bl	84960 <__km4_set_wake_event_veneer>
   842ca:	e7b3      	b.n	84234 <SOCPS_SleepCG+0x48>
   842cc:	f645 1030 	movw	r0, #22832	; 0x5930
   842d0:	f6c0 4001 	movt	r0, #3073	; 0xc01
   842d4:	3048      	adds	r0, #72	; 0x48
   842d6:	f77c f8cd 	bl	474 <DiagVSprintf+0x35f>
   842da:	e795      	b.n	84208 <SOCPS_SleepCG+0x1c>
   842dc:	f645 1030 	movw	r0, #22832	; 0x5930
   842e0:	f6c0 4001 	movt	r0, #3073	; 0xc01
   842e4:	0029      	movs	r1, r5
   842e6:	3054      	adds	r0, #84	; 0x54
   842e8:	f77c f8c4 	bl	474 <DiagVSprintf+0x35f>
   842ec:	e7a0      	b.n	84230 <SOCPS_SleepCG+0x44>
   842ee:	f645 1030 	movw	r0, #22832	; 0x5930
   842f2:	f6c0 4001 	movt	r0, #3073	; 0xc01
   842f6:	6832      	ldr	r2, [r6, #0]
   842f8:	6829      	ldr	r1, [r5, #0]
   842fa:	3070      	adds	r0, #112	; 0x70
   842fc:	f77c f8ba 	bl	474 <DiagVSprintf+0x35f>
   84300:	e7dc      	b.n	842bc <SOCPS_SleepCG+0xd0>
   84302:	bf00      	nop

00084304 <SOCPS_SleepDeInit>:
   84304:	2230      	movs	r2, #48	; 0x30
   84306:	f6c4 0200 	movt	r2, #18432	; 0x4800
   8430a:	6813      	ldr	r3, [r2, #0]
   8430c:	b510      	push	{r4, lr}
   8430e:	005b      	lsls	r3, r3, #1
   84310:	085b      	lsrs	r3, r3, #1
   84312:	6013      	str	r3, [r2, #0]
   84314:	235c      	movs	r3, #92	; 0x5c
   84316:	2202      	movs	r2, #2
   84318:	2001      	movs	r0, #1
   8431a:	f6c4 0300 	movt	r3, #18432	; 0x4800
   8431e:	601a      	str	r2, [r3, #0]
   84320:	2100      	movs	r1, #0
   84322:	4240      	negs	r0, r0
   84324:	f000 f80e 	bl	84344 <SOCPS_SetWakeEvent>
   84328:	f000 f836 	bl	84398 <SOCPS_ClearWakePin>
   8432c:	f000 f842 	bl	843b4 <SOCPS_ClearWakeEvent>
   84330:	f24e 1300 	movw	r3, #57600	; 0xe100
   84334:	2101      	movs	r1, #1
   84336:	f240 1280 	movw	r2, #384	; 0x180
   8433a:	f2ce 0300 	movt	r3, #57344	; 0xe000
   8433e:	5099      	str	r1, [r3, r2]
   84340:	bd10      	pop	{r4, pc}
   84342:	bf00      	nop

00084344 <SOCPS_SetWakeEvent>:
   84344:	f240 3318 	movw	r3, #792	; 0x318
   84348:	b510      	push	{r4, lr}
   8434a:	2410      	movs	r4, #16
   8434c:	f6c4 0300 	movt	r3, #18432	; 0x4800
   84350:	681a      	ldr	r2, [r3, #0]
   84352:	4322      	orrs	r2, r4
   84354:	601a      	str	r2, [r3, #0]
   84356:	f240 3300 	movw	r3, #768	; 0x300
   8435a:	f6c4 0300 	movt	r3, #18432	; 0x4800
   8435e:	681b      	ldr	r3, [r3, #0]
   84360:	2901      	cmp	r1, #1
   84362:	d007      	beq.n	84374 <SOCPS_SetWakeEvent+0x30>
   84364:	4383      	bics	r3, r0
   84366:	0018      	movs	r0, r3
   84368:	f240 3300 	movw	r3, #768	; 0x300
   8436c:	f6c4 0300 	movt	r3, #18432	; 0x4800
   84370:	6018      	str	r0, [r3, #0]
   84372:	bd10      	pop	{r4, pc}
   84374:	4318      	orrs	r0, r3
   84376:	e7f7      	b.n	84368 <SOCPS_SetWakeEvent+0x24>

00084378 <SOCPS_SetWakeEventAON>:
   84378:	2358      	movs	r3, #88	; 0x58
   8437a:	f6c4 0300 	movt	r3, #18432	; 0x4800
   8437e:	681b      	ldr	r3, [r3, #0]
   84380:	2901      	cmp	r1, #1
   84382:	d006      	beq.n	84392 <SOCPS_SetWakeEventAON+0x1a>
   84384:	4383      	bics	r3, r0
   84386:	0018      	movs	r0, r3
   84388:	2358      	movs	r3, #88	; 0x58
   8438a:	f6c4 0300 	movt	r3, #18432	; 0x4800
   8438e:	6018      	str	r0, [r3, #0]
   84390:	4770      	bx	lr
   84392:	4318      	orrs	r0, r3
   84394:	e7f8      	b.n	84388 <SOCPS_SetWakeEventAON+0x10>
   84396:	bf00      	nop

00084398 <SOCPS_ClearWakePin>:
   84398:	2340      	movs	r3, #64	; 0x40
   8439a:	f6c4 0300 	movt	r3, #18432	; 0x4800
   8439e:	681a      	ldr	r2, [r3, #0]
   843a0:	4903      	ldr	r1, [pc, #12]	; (843b0 <SOCPS_ClearWakePin+0x18>)
   843a2:	4011      	ands	r1, r2
   843a4:	22f0      	movs	r2, #240	; 0xf0
   843a6:	0512      	lsls	r2, r2, #20
   843a8:	430a      	orrs	r2, r1
   843aa:	601a      	str	r2, [r3, #0]
   843ac:	4770      	bx	lr
   843ae:	bf00      	nop
   843b0:	fffff0ff 	.word	0xfffff0ff

000843b4 <SOCPS_ClearWakeEvent>:
   843b4:	f240 3304 	movw	r3, #772	; 0x304
   843b8:	f6c4 0300 	movt	r3, #18432	; 0x4800
   843bc:	681a      	ldr	r2, [r3, #0]
   843be:	b510      	push	{r4, lr}
   843c0:	601a      	str	r2, [r3, #0]
   843c2:	f240 330c 	movw	r3, #780	; 0x30c
   843c6:	f6c4 0300 	movt	r3, #18432	; 0x4800
   843ca:	681a      	ldr	r2, [r3, #0]
   843cc:	20ef      	movs	r0, #239	; 0xef
   843ce:	601a      	str	r2, [r3, #0]
   843d0:	f7ff fbf2 	bl	83bb8 <SOCPS_AONWakeClear>
   843d4:	bd10      	pop	{r4, pc}
   843d6:	bf00      	nop

000843d8 <SOCPS_AudioLDO>:
   843d8:	b570      	push	{r4, r5, r6, lr}
   843da:	b1a0      	cbz	r0, 84406 <SOCPS_AudioLDO+0x2e>
   843dc:	f644 13a8 	movw	r3, #18856	; 0x49a8
   843e0:	f2c0 0308 	movt	r3, #8
   843e4:	685b      	ldr	r3, [r3, #4]
   843e6:	b96b      	cbnz	r3, 84404 <SOCPS_AudioLDO+0x2c>
   843e8:	f644 7394 	movw	r3, #20372	; 0x4f94
   843ec:	f2c0 0308 	movt	r3, #8
   843f0:	699b      	ldr	r3, [r3, #24]
   843f2:	b13b      	cbz	r3, 84404 <SOCPS_AudioLDO+0x2c>
   843f4:	f240 3444 	movw	r4, #836	; 0x344
   843f8:	2501      	movs	r5, #1
   843fa:	f6c4 0400 	movt	r4, #18432	; 0x4800
   843fe:	6823      	ldr	r3, [r4, #0]
   84400:	421d      	tst	r5, r3
   84402:	d019      	beq.n	84438 <SOCPS_AudioLDO+0x60>
   84404:	bd70      	pop	{r4, r5, r6, pc}
   84406:	f240 3244 	movw	r2, #836	; 0x344
   8440a:	f6c4 0200 	movt	r2, #18432	; 0x4800
   8440e:	6813      	ldr	r3, [r2, #0]
   84410:	491b      	ldr	r1, [pc, #108]	; (84480 <SOCPS_AudioLDO+0xa8>)
   84412:	400b      	ands	r3, r1
   84414:	6013      	str	r3, [r2, #0]
   84416:	f245 526c 	movw	r2, #21868	; 0x556c
   8441a:	061b      	lsls	r3, r3, #24
   8441c:	f2c0 0208 	movt	r2, #8
   84420:	0e5b      	lsrs	r3, r3, #25
   84422:	6013      	str	r3, [r2, #0]
   84424:	f240 2380 	movw	r3, #640	; 0x280
   84428:	f6c4 0300 	movt	r3, #18432	; 0x4800
   8442c:	681a      	ldr	r2, [r3, #0]
   8442e:	310a      	adds	r1, #10
   84430:	31ff      	adds	r1, #255	; 0xff
   84432:	438a      	bics	r2, r1
   84434:	601a      	str	r2, [r3, #0]
   84436:	e7e5      	b.n	84404 <SOCPS_AudioLDO+0x2c>
   84438:	f240 2380 	movw	r3, #640	; 0x280
   8443c:	2107      	movs	r1, #7
   8443e:	f6c4 0300 	movt	r3, #18432	; 0x4800
   84442:	681a      	ldr	r2, [r3, #0]
   84444:	2005      	movs	r0, #5
   84446:	430a      	orrs	r2, r1
   84448:	601a      	str	r2, [r3, #0]
   8444a:	f240 1200 	movw	r2, #256	; 0x100
   8444e:	6823      	ldr	r3, [r4, #0]
   84450:	4313      	orrs	r3, r2
   84452:	6023      	str	r3, [r4, #0]
   84454:	f241 43c3 	movw	r3, #5315	; 0x14c3
   84458:	f2c0 0300 	movt	r3, #0
   8445c:	4798      	blx	r3
   8445e:	22fe      	movs	r2, #254	; 0xfe
   84460:	6823      	ldr	r3, [r4, #0]
   84462:	4393      	bics	r3, r2
   84464:	001a      	movs	r2, r3
   84466:	f245 536c 	movw	r3, #21868	; 0x556c
   8446a:	f2c0 0308 	movt	r3, #8
   8446e:	681b      	ldr	r3, [r3, #0]
   84470:	005b      	lsls	r3, r3, #1
   84472:	4313      	orrs	r3, r2
   84474:	6023      	str	r3, [r4, #0]
   84476:	6823      	ldr	r3, [r4, #0]
   84478:	431d      	orrs	r5, r3
   8447a:	6025      	str	r5, [r4, #0]
   8447c:	e7c2      	b.n	84404 <SOCPS_AudioLDO+0x2c>
   8447e:	bf00      	nop
   84480:	fffffefe 	.word	0xfffffefe

00084484 <SOCPS_SWRLDO_Suspend>:
   84484:	2214      	movs	r2, #20
   84486:	f6c4 0200 	movt	r2, #18432	; 0x4800
   8448a:	6813      	ldr	r3, [r2, #0]
   8448c:	2801      	cmp	r0, #1
   8448e:	d01c      	beq.n	844ca <SOCPS_SWRLDO_Suspend+0x46>
   84490:	491b      	ldr	r1, [pc, #108]	; (84500 <SOCPS_SWRLDO_Suspend+0x7c>)
   84492:	400b      	ands	r3, r1
   84494:	f242 4100 	movw	r1, #9216	; 0x2400
   84498:	430b      	orrs	r3, r1
   8449a:	6013      	str	r3, [r2, #0]
   8449c:	2210      	movs	r2, #16
   8449e:	f6c4 0200 	movt	r2, #18432	; 0x4800
   844a2:	6813      	ldr	r3, [r2, #0]
   844a4:	4917      	ldr	r1, [pc, #92]	; (84504 <SOCPS_SWRLDO_Suspend+0x80>)
   844a6:	400b      	ands	r3, r1
   844a8:	f249 0100 	movw	r1, #36864	; 0x9000
   844ac:	430b      	orrs	r3, r1
   844ae:	6013      	str	r3, [r2, #0]
   844b0:	f240 2324 	movw	r3, #548	; 0x224
   844b4:	f6c4 0300 	movt	r3, #18432	; 0x4800
   844b8:	681b      	ldr	r3, [r3, #0]
   844ba:	4a13      	ldr	r2, [pc, #76]	; (84508 <SOCPS_SWRLDO_Suspend+0x84>)
   844bc:	4013      	ands	r3, r2
   844be:	f240 2224 	movw	r2, #548	; 0x224
   844c2:	f6c4 0200 	movt	r2, #18432	; 0x4800
   844c6:	6013      	str	r3, [r2, #0]
   844c8:	4770      	bx	lr
   844ca:	4910      	ldr	r1, [pc, #64]	; (8450c <SOCPS_SWRLDO_Suspend+0x88>)
   844cc:	400b      	ands	r3, r1
   844ce:	f640 6100 	movw	r1, #3584	; 0xe00
   844d2:	430b      	orrs	r3, r1
   844d4:	6013      	str	r3, [r2, #0]
   844d6:	2310      	movs	r3, #16
   844d8:	f6c4 0300 	movt	r3, #18432	; 0x4800
   844dc:	681a      	ldr	r2, [r3, #0]
   844de:	490c      	ldr	r1, [pc, #48]	; (84510 <SOCPS_SWRLDO_Suspend+0x8c>)
   844e0:	4011      	ands	r1, r2
   844e2:	22c8      	movs	r2, #200	; 0xc8
   844e4:	0252      	lsls	r2, r2, #9
   844e6:	430a      	orrs	r2, r1
   844e8:	601a      	str	r2, [r3, #0]
   844ea:	f240 2324 	movw	r3, #548	; 0x224
   844ee:	f6c4 0300 	movt	r3, #18432	; 0x4800
   844f2:	4a05      	ldr	r2, [pc, #20]	; (84508 <SOCPS_SWRLDO_Suspend+0x84>)
   844f4:	681b      	ldr	r3, [r3, #0]
   844f6:	4013      	ands	r3, r2
   844f8:	f244 0200 	movw	r2, #16384	; 0x4000
   844fc:	4313      	orrs	r3, r2
   844fe:	e7de      	b.n	844be <SOCPS_SWRLDO_Suspend+0x3a>
   84500:	ffffc1ff 	.word	0xffffc1ff
   84504:	fffe0fff 	.word	0xfffe0fff
   84508:	ffff9fff 	.word	0xffff9fff
   8450c:	ffffc3ff 	.word	0xffffc3ff
   84510:	ffff0fff 	.word	0xffff0fff

00084514 <SOCPS_SleepCG_RAM>:
   84514:	b5f8      	push	{r3, r4, r5, r6, r7, lr}
   84516:	f644 7494 	movw	r4, #20372	; 0x4f94
   8451a:	f000 fa01 	bl	84920 <__pinmap_sleep_veneer>
   8451e:	f2c0 0408 	movt	r4, #8
   84522:	2000      	movs	r0, #0
   84524:	f000 f9dc 	bl	848e0 <__km4_flash_highspeed_suspend_veneer>
   84528:	68e3      	ldr	r3, [r4, #12]
   8452a:	b13b      	cbz	r3, 8453c <SOCPS_SleepCG_RAM+0x28>
   8452c:	f240 2398 	movw	r3, #664	; 0x298
   84530:	2101      	movs	r1, #1
   84532:	f6c4 0300 	movt	r3, #18432	; 0x4800
   84536:	681a      	ldr	r2, [r3, #0]
   84538:	438a      	bics	r2, r1
   8453a:	601a      	str	r2, [r3, #0]
   8453c:	f242 15b9 	movw	r5, #8633	; 0x21b9
   84540:	2001      	movs	r0, #1
   84542:	f2c0 0500 	movt	r5, #0
   84546:	47a8      	blx	r5
   84548:	f240 3244 	movw	r2, #836	; 0x344
   8454c:	f6c4 0200 	movt	r2, #18432	; 0x4800
   84550:	6813      	ldr	r3, [r2, #0]
   84552:	4942      	ldr	r1, [pc, #264]	; (8465c <SOCPS_SleepCG_RAM+0x148>)
   84554:	f645 17b8 	movw	r7, #22968	; 0x59b8
   84558:	400b      	ands	r3, r1
   8455a:	6013      	str	r3, [r2, #0]
   8455c:	f245 526c 	movw	r2, #21868	; 0x556c
   84560:	061b      	lsls	r3, r3, #24
   84562:	f2c0 0208 	movt	r2, #8
   84566:	0e5b      	lsrs	r3, r3, #25
   84568:	6013      	str	r3, [r2, #0]
   8456a:	f240 2380 	movw	r3, #640	; 0x280
   8456e:	f6c4 0300 	movt	r3, #18432	; 0x4800
   84572:	681a      	ldr	r2, [r3, #0]
   84574:	310a      	adds	r1, #10
   84576:	31ff      	adds	r1, #255	; 0xff
   84578:	438a      	bics	r2, r1
   8457a:	601a      	str	r2, [r3, #0]
   8457c:	f240 3320 	movw	r3, #800	; 0x320
   84580:	f6c4 0300 	movt	r3, #18432	; 0x4800
   84584:	681a      	ldr	r2, [r3, #0]
   84586:	3906      	subs	r1, #6
   84588:	430a      	orrs	r2, r1
   8458a:	601a      	str	r2, [r3, #0]
   8458c:	f2c0 0708 	movt	r7, #8
   84590:	783b      	ldrb	r3, [r7, #0]
   84592:	b96b      	cbnz	r3, 845b0 <SOCPS_SleepCG_RAM+0x9c>
   84594:	2280      	movs	r2, #128	; 0x80
   84596:	f240 2300 	movw	r3, #512	; 0x200
   8459a:	02d2      	lsls	r2, r2, #11
   8459c:	0010      	movs	r0, r2
   8459e:	f6c4 0300 	movt	r3, #18432	; 0x4800
   845a2:	6819      	ldr	r1, [r3, #0]
   845a4:	4308      	orrs	r0, r1
   845a6:	6018      	str	r0, [r3, #0]
   845a8:	200c      	movs	r0, #12
   845aa:	4381      	bics	r1, r0
   845ac:	430a      	orrs	r2, r1
   845ae:	601a      	str	r2, [r3, #0]
   845b0:	f240 3218 	movw	r2, #792	; 0x318
   845b4:	2101      	movs	r1, #1
   845b6:	2602      	movs	r6, #2
   845b8:	f6c4 0200 	movt	r2, #18432	; 0x4800
   845bc:	6813      	ldr	r3, [r2, #0]
   845be:	2032      	movs	r0, #50	; 0x32
   845c0:	438b      	bics	r3, r1
   845c2:	4333      	orrs	r3, r6
   845c4:	6013      	str	r3, [r2, #0]
   845c6:	f241 43c3 	movw	r3, #5315	; 0x14c3
   845ca:	f2c0 0300 	movt	r3, #0
   845ce:	4798      	blx	r3
   845d0:	f240 2310 	movw	r3, #528	; 0x210
   845d4:	f6c4 0300 	movt	r3, #18432	; 0x4800
   845d8:	681a      	ldr	r2, [r3, #0]
   845da:	4332      	orrs	r2, r6
   845dc:	601a      	str	r2, [r3, #0]
   845de:	f240 3304 	movw	r3, #772	; 0x304
   845e2:	f6c4 0300 	movt	r3, #18432	; 0x4800
   845e6:	681b      	ldr	r3, [r3, #0]
   845e8:	069b      	lsls	r3, r3, #26
   845ea:	d508      	bpl.n	845fe <SOCPS_SleepCG_RAM+0xea>
   845ec:	f240 3314 	movw	r3, #788	; 0x314
   845f0:	2280      	movs	r2, #128	; 0x80
   845f2:	f6c4 0300 	movt	r3, #18432	; 0x4800
   845f6:	6819      	ldr	r1, [r3, #0]
   845f8:	0252      	lsls	r2, r2, #9
   845fa:	430a      	orrs	r2, r1
   845fc:	601a      	str	r2, [r3, #0]
   845fe:	f242 2080 	movw	r0, #8832	; 0x2280
   84602:	2300      	movs	r3, #0
   84604:	f6c4 0000 	movt	r0, #18432	; 0x4800
   84608:	6143      	str	r3, [r0, #20]
   8460a:	f643 138d 	movw	r3, #14733	; 0x398d
   8460e:	f2c0 0300 	movt	r3, #0
   84612:	4798      	blx	r3
   84614:	f240 2600 	movw	r6, #512	; 0x200
   84618:	2204      	movs	r2, #4
   8461a:	6320      	str	r0, [r4, #48]	; 0x30
   8461c:	f6c4 0600 	movt	r6, #18432	; 0x4800
   84620:	6833      	ldr	r3, [r6, #0]
   84622:	2000      	movs	r0, #0
   84624:	4313      	orrs	r3, r2
   84626:	6033      	str	r3, [r6, #0]
   84628:	47a8      	blx	r5
   8462a:	783b      	ldrb	r3, [r7, #0]
   8462c:	b92b      	cbnz	r3, 8463a <SOCPS_SleepCG_RAM+0x126>
   8462e:	6833      	ldr	r3, [r6, #0]
   84630:	4a0b      	ldr	r2, [pc, #44]	; (84660 <SOCPS_SleepCG_RAM+0x14c>)
   84632:	4013      	ands	r3, r2
   84634:	2208      	movs	r2, #8
   84636:	4313      	orrs	r3, r2
   84638:	6033      	str	r3, [r6, #0]
   8463a:	68e3      	ldr	r3, [r4, #12]
   8463c:	b13b      	cbz	r3, 8464e <SOCPS_SleepCG_RAM+0x13a>
   8463e:	f240 2398 	movw	r3, #664	; 0x298
   84642:	2101      	movs	r1, #1
   84644:	f6c4 0300 	movt	r3, #18432	; 0x4800
   84648:	681a      	ldr	r2, [r3, #0]
   8464a:	430a      	orrs	r2, r1
   8464c:	601a      	str	r2, [r3, #0]
   8464e:	2000      	movs	r0, #0
   84650:	f000 f956 	bl	84900 <__km4_flash_highspeed_resume_veneer>
   84654:	f000 f95c 	bl	84910 <__pinmap_wake_veneer>
   84658:	bdf8      	pop	{r3, r4, r5, r6, r7, pc}
   8465a:	bf00      	nop
   8465c:	fffffefe 	.word	0xfffffefe
   84660:	fffbffff 	.word	0xfffbffff

00084664 <SOCPS_SleepPG_RAM>:
   84664:	b5f0      	push	{r4, r5, r6, r7, lr}
   84666:	46d6      	mov	lr, sl
   84668:	464f      	mov	r7, r9
   8466a:	4646      	mov	r6, r8
   8466c:	b5c0      	push	{r6, r7, lr}
   8466e:	f000 f957 	bl	84920 <__pinmap_sleep_veneer>
   84672:	2000      	movs	r0, #0
   84674:	f000 f934 	bl	848e0 <__km4_flash_highspeed_suspend_veneer>
   84678:	f644 7394 	movw	r3, #20372	; 0x4f94
   8467c:	f2c0 0308 	movt	r3, #8
   84680:	68db      	ldr	r3, [r3, #12]
   84682:	b13b      	cbz	r3, 84694 <SOCPS_SleepPG_RAM+0x30>
   84684:	f240 2398 	movw	r3, #664	; 0x298
   84688:	2101      	movs	r1, #1
   8468a:	f6c4 0300 	movt	r3, #18432	; 0x4800
   8468e:	681a      	ldr	r2, [r3, #0]
   84690:	438a      	bics	r2, r1
   84692:	601a      	str	r2, [r3, #0]
   84694:	f242 17b9 	movw	r7, #8633	; 0x21b9
   84698:	2001      	movs	r0, #1
   8469a:	f2c0 0700 	movt	r7, #0
   8469e:	47b8      	blx	r7
   846a0:	f240 3244 	movw	r2, #836	; 0x344
   846a4:	f6c4 0200 	movt	r2, #18432	; 0x4800
   846a8:	6813      	ldr	r3, [r2, #0]
   846aa:	495d      	ldr	r1, [pc, #372]	; (84820 <SOCPS_SleepPG_RAM+0x1bc>)
   846ac:	2501      	movs	r5, #1
   846ae:	400b      	ands	r3, r1
   846b0:	6013      	str	r3, [r2, #0]
   846b2:	f245 526c 	movw	r2, #21868	; 0x556c
   846b6:	061b      	lsls	r3, r3, #24
   846b8:	f2c0 0208 	movt	r2, #8
   846bc:	0e5b      	lsrs	r3, r3, #25
   846be:	6013      	str	r3, [r2, #0]
   846c0:	f240 2380 	movw	r3, #640	; 0x280
   846c4:	f6c4 0300 	movt	r3, #18432	; 0x4800
   846c8:	681a      	ldr	r2, [r3, #0]
   846ca:	310a      	adds	r1, #10
   846cc:	31ff      	adds	r1, #255	; 0xff
   846ce:	438a      	bics	r2, r1
   846d0:	601a      	str	r2, [r3, #0]
   846d2:	f240 3320 	movw	r3, #800	; 0x320
   846d6:	f240 1000 	movw	r0, #256	; 0x100
   846da:	f644 7409 	movw	r4, #20233	; 0x4f09
   846de:	f6c4 0300 	movt	r3, #18432	; 0x4800
   846e2:	681a      	ldr	r2, [r3, #0]
   846e4:	f240 3100 	movw	r1, #768	; 0x300
   846e8:	43aa      	bics	r2, r5
   846ea:	601a      	str	r2, [r3, #0]
   846ec:	f2cc 0000 	movt	r0, #49152	; 0xc000
   846f0:	2200      	movs	r2, #0
   846f2:	f2c0 0400 	movt	r4, #0
   846f6:	47a0      	blx	r4
   846f8:	2280      	movs	r2, #128	; 0x80
   846fa:	f240 2300 	movw	r3, #512	; 0x200
   846fe:	02d2      	lsls	r2, r2, #11
   84700:	0010      	movs	r0, r2
   84702:	f6c4 0300 	movt	r3, #18432	; 0x4800
   84706:	6819      	ldr	r1, [r3, #0]
   84708:	4308      	orrs	r0, r1
   8470a:	6018      	str	r0, [r3, #0]
   8470c:	200c      	movs	r0, #12
   8470e:	4381      	bics	r1, r0
   84710:	f240 3018 	movw	r0, #792	; 0x318
   84714:	430a      	orrs	r2, r1
   84716:	601a      	str	r2, [r3, #0]
   84718:	f6c4 0000 	movt	r0, #18432	; 0x4800
   8471c:	6802      	ldr	r2, [r0, #0]
   8471e:	43aa      	bics	r2, r5
   84720:	3501      	adds	r5, #1
   84722:	432a      	orrs	r2, r5
   84724:	6002      	str	r2, [r0, #0]
   84726:	bf30      	wfi
   84728:	46c0      	nop			; (mov r8, r8)
   8472a:	f240 2210 	movw	r2, #528	; 0x210
   8472e:	f6c4 0200 	movt	r2, #18432	; 0x4800
   84732:	6811      	ldr	r1, [r2, #0]
   84734:	f240 1000 	movw	r0, #256	; 0x100
   84738:	4329      	orrs	r1, r5
   8473a:	6011      	str	r1, [r2, #0]
   8473c:	2104      	movs	r1, #4
   8473e:	681a      	ldr	r2, [r3, #0]
   84740:	f2cc 0000 	movt	r0, #49152	; 0xc000
   84744:	430a      	orrs	r2, r1
   84746:	601a      	str	r2, [r3, #0]
   84748:	f240 3100 	movw	r1, #768	; 0x300
   8474c:	2201      	movs	r2, #1
   8474e:	47a0      	blx	r4
   84750:	f240 13f8 	movw	r3, #504	; 0x1f8
   84754:	f2c0 0308 	movt	r3, #8
   84758:	7918      	ldrb	r0, [r3, #4]
   8475a:	f242 43e1 	movw	r3, #9441	; 0x24e1
   8475e:	f2c0 0300 	movt	r3, #0
   84762:	4798      	blx	r3
   84764:	f3bf 8f4f 	dsb	sy
   84768:	f3bf 8f6f 	isb	sy
   8476c:	f64e 5400 	movw	r4, #60672	; 0xed00
   84770:	2200      	movs	r2, #0
   84772:	f240 2350 	movw	r3, #592	; 0x250
   84776:	f2ce 0400 	movt	r4, #57344	; 0xe000
   8477a:	50e2      	str	r2, [r4, r3]
   8477c:	f3bf 8f4f 	dsb	sy
   84780:	f3bf 8f6f 	isb	sy
   84784:	2380      	movs	r3, #128	; 0x80
   84786:	6961      	ldr	r1, [r4, #20]
   84788:	029b      	lsls	r3, r3, #10
   8478a:	430b      	orrs	r3, r1
   8478c:	6163      	str	r3, [r4, #20]
   8478e:	f3bf 8f4f 	dsb	sy
   84792:	f3bf 8f6f 	isb	sy
   84796:	2384      	movs	r3, #132	; 0x84
   84798:	50e2      	str	r2, [r4, r3]
   8479a:	f3bf 8f4f 	dsb	sy
   8479e:	3b04      	subs	r3, #4
   847a0:	58e6      	ldr	r6, [r4, r3]
   847a2:	f643 78e0 	movw	r8, #16352	; 0x3fe0
   847a6:	04f3      	lsls	r3, r6, #19
   847a8:	0d9b      	lsrs	r3, r3, #22
   847aa:	469c      	mov	ip, r3
   847ac:	07db      	lsls	r3, r3, #31
   847ae:	4699      	mov	r9, r3
   847b0:	f240 2560 	movw	r5, #608	; 0x260
   847b4:	0136      	lsls	r6, r6, #4
   847b6:	0c76      	lsrs	r6, r6, #17
   847b8:	0176      	lsls	r6, r6, #5
   847ba:	4640      	mov	r0, r8
   847bc:	464a      	mov	r2, r9
   847be:	4663      	mov	r3, ip
   847c0:	4030      	ands	r0, r6
   847c2:	0011      	movs	r1, r2
   847c4:	4301      	orrs	r1, r0
   847c6:	5161      	str	r1, [r4, r5]
   847c8:	2180      	movs	r1, #128	; 0x80
   847ca:	0609      	lsls	r1, r1, #24
   847cc:	468a      	mov	sl, r1
   847ce:	4452      	add	r2, sl
   847d0:	3b01      	subs	r3, #1
   847d2:	d2f6      	bcs.n	847c2 <SOCPS_SleepPG_RAM+0x15e>
   847d4:	3e20      	subs	r6, #32
   847d6:	0033      	movs	r3, r6
   847d8:	3320      	adds	r3, #32
   847da:	d1ee      	bne.n	847ba <SOCPS_SleepPG_RAM+0x156>
   847dc:	f3bf 8f4f 	dsb	sy
   847e0:	2380      	movs	r3, #128	; 0x80
   847e2:	6962      	ldr	r2, [r4, #20]
   847e4:	025b      	lsls	r3, r3, #9
   847e6:	4313      	orrs	r3, r2
   847e8:	6163      	str	r3, [r4, #20]
   847ea:	f3bf 8f4f 	dsb	sy
   847ee:	f3bf 8f6f 	isb	sy
   847f2:	2000      	movs	r0, #0
   847f4:	47b8      	blx	r7
   847f6:	f240 2200 	movw	r2, #512	; 0x200
   847fa:	f6c4 0200 	movt	r2, #18432	; 0x4800
   847fe:	6813      	ldr	r3, [r2, #0]
   84800:	4908      	ldr	r1, [pc, #32]	; (84824 <SOCPS_SleepPG_RAM+0x1c0>)
   84802:	400b      	ands	r3, r1
   84804:	2108      	movs	r1, #8
   84806:	430b      	orrs	r3, r1
   84808:	6013      	str	r3, [r2, #0]
   8480a:	f7ff faed 	bl	83de8 <SOCPS_MMUReFill>
   8480e:	2000      	movs	r0, #0
   84810:	f000 f876 	bl	84900 <__km4_flash_highspeed_resume_veneer>
   84814:	bc1c      	pop	{r2, r3, r4}
   84816:	4690      	mov	r8, r2
   84818:	4699      	mov	r9, r3
   8481a:	46a2      	mov	sl, r4
   8481c:	bdf0      	pop	{r4, r5, r6, r7, pc}
   8481e:	bf00      	nop
   84820:	fffffefe 	.word	0xfffffefe
   84824:	fffbffff 	.word	0xfffbffff

00084828 <SOCPS_DeepSleep_RAM>:
   84828:	f240 13cc 	movw	r3, #460	; 0x1cc
   8482c:	f2c0 0308 	movt	r3, #8
   84830:	681b      	ldr	r3, [r3, #0]
   84832:	b510      	push	{r4, lr}
   84834:	039b      	lsls	r3, r3, #14
   84836:	d438      	bmi.n	848aa <SOCPS_DeepSleep_RAM+0x82>
   84838:	f000 f89a 	bl	84970 <__SOCPS_DsleepInit_veneer>
   8483c:	f000 f840 	bl	848c0 <__pinmap_deepsleep_veneer>
   84840:	f240 3304 	movw	r3, #772	; 0x304
   84844:	f6c4 0300 	movt	r3, #18432	; 0x4800
   84848:	681a      	ldr	r2, [r3, #0]
   8484a:	20ef      	movs	r0, #239	; 0xef
   8484c:	601a      	str	r2, [r3, #0]
   8484e:	f240 330c 	movw	r3, #780	; 0x30c
   84852:	f6c4 0300 	movt	r3, #18432	; 0x4800
   84856:	681a      	ldr	r2, [r3, #0]
   84858:	601a      	str	r2, [r3, #0]
   8485a:	f7ff f9ad 	bl	83bb8 <SOCPS_AONWakeClear>
   8485e:	f7fe fbeb 	bl	83038 <FLASH_Write_Lock>
   84862:	f242 13b9 	movw	r3, #8633	; 0x21b9
   84866:	2001      	movs	r0, #1
   84868:	f2c0 0300 	movt	r3, #0
   8486c:	4798      	blx	r3
   8486e:	f7fe fc13 	bl	83098 <FLASH_Write_Unlock>
   84872:	2214      	movs	r2, #20
   84874:	f6c4 0200 	movt	r2, #18432	; 0x4800
   84878:	6813      	ldr	r3, [r2, #0]
   8487a:	490f      	ldr	r1, [pc, #60]	; (848b8 <SOCPS_DeepSleep_RAM+0x90>)
   8487c:	400b      	ands	r3, r1
   8487e:	f242 4100 	movw	r1, #9216	; 0x2400
   84882:	430b      	orrs	r3, r1
   84884:	6013      	str	r3, [r2, #0]
   84886:	2290      	movs	r2, #144	; 0x90
   84888:	05d2      	lsls	r2, r2, #23
   8488a:	6813      	ldr	r3, [r2, #0]
   8488c:	490b      	ldr	r1, [pc, #44]	; (848bc <SOCPS_DeepSleep_RAM+0x94>)
   8488e:	400b      	ands	r3, r1
   84890:	6013      	str	r3, [r2, #0]
   84892:	f240 3218 	movw	r2, #792	; 0x318
   84896:	2102      	movs	r1, #2
   84898:	f6c4 0200 	movt	r2, #18432	; 0x4800
   8489c:	6813      	ldr	r3, [r2, #0]
   8489e:	438b      	bics	r3, r1
   848a0:	3901      	subs	r1, #1
   848a2:	430b      	orrs	r3, r1
   848a4:	6013      	str	r3, [r2, #0]
   848a6:	bf30      	wfi
   848a8:	bd10      	pop	{r4, pc}
   848aa:	f645 10b0 	movw	r0, #22960	; 0x59b0
   848ae:	f6c0 4001 	movt	r0, #3073	; 0xc01
   848b2:	f77b fddf 	bl	474 <DiagVSprintf+0x35f>
   848b6:	e7bf      	b.n	84838 <SOCPS_DeepSleep_RAM+0x10>
   848b8:	ffff43ff 	.word	0xffff43ff
   848bc:	feffffff 	.word	0xfeffffff

000848c0 <__pinmap_deepsleep_veneer>:
   848c0:	b401      	push	{r0}
   848c2:	4802      	ldr	r0, [pc, #8]	; (848cc <__pinmap_deepsleep_veneer+0xc>)
   848c4:	4684      	mov	ip, r0
   848c6:	bc01      	pop	{r0}
   848c8:	4760      	bx	ip
   848ca:	bf00      	nop
   848cc:	0c004485 	.word	0x0c004485

000848d0 <__km4_status_on_veneer>:
   848d0:	b401      	push	{r0}
   848d2:	4802      	ldr	r0, [pc, #8]	; (848dc <__km4_status_on_veneer+0xc>)
   848d4:	4684      	mov	ip, r0
   848d6:	bc01      	pop	{r0}
   848d8:	4760      	bx	ip
   848da:	bf00      	nop
   848dc:	0c0040b5 	.word	0x0c0040b5

000848e0 <__km4_flash_highspeed_suspend_veneer>:
   848e0:	b401      	push	{r0}
   848e2:	4802      	ldr	r0, [pc, #8]	; (848ec <__km4_flash_highspeed_suspend_veneer+0xc>)
   848e4:	4684      	mov	ip, r0
   848e6:	bc01      	pop	{r0}
   848e8:	4760      	bx	ip
   848ea:	bf00      	nop
   848ec:	0c004231 	.word	0x0c004231

000848f0 <__pmu_exec_wakeup_hook_funs_veneer>:
   848f0:	b401      	push	{r0}
   848f2:	4802      	ldr	r0, [pc, #8]	; (848fc <__pmu_exec_wakeup_hook_funs_veneer+0xc>)
   848f4:	4684      	mov	ip, r0
   848f6:	bc01      	pop	{r0}
   848f8:	4760      	bx	ip
   848fa:	bf00      	nop
   848fc:	0c002291 	.word	0x0c002291

00084900 <__km4_flash_highspeed_resume_veneer>:
   84900:	b401      	push	{r0}
   84902:	4802      	ldr	r0, [pc, #8]	; (8490c <__km4_flash_highspeed_resume_veneer+0xc>)
   84904:	4684      	mov	ip, r0
   84906:	bc01      	pop	{r0}
   84908:	4760      	bx	ip
   8490a:	bf00      	nop
   8490c:	0c004265 	.word	0x0c004265

00084910 <__pinmap_wake_veneer>:
   84910:	b401      	push	{r0}
   84912:	4802      	ldr	r0, [pc, #8]	; (8491c <__pinmap_wake_veneer+0xc>)
   84914:	4684      	mov	ip, r0
   84916:	bc01      	pop	{r0}
   84918:	4760      	bx	ip
   8491a:	bf00      	nop
   8491c:	0c0044d1 	.word	0x0c0044d1

00084920 <__pinmap_sleep_veneer>:
   84920:	b401      	push	{r0}
   84922:	4802      	ldr	r0, [pc, #8]	; (8492c <__pinmap_sleep_veneer+0xc>)
   84924:	4684      	mov	ip, r0
   84926:	bc01      	pop	{r0}
   84928:	4760      	bx	ip
   8492a:	bf00      	nop
   8492c:	0c004429 	.word	0x0c004429

00084930 <__pmu_exec_sleep_hook_funs_veneer>:
   84930:	b401      	push	{r0}
   84932:	4802      	ldr	r0, [pc, #8]	; (8493c <__pmu_exec_sleep_hook_funs_veneer+0xc>)
   84934:	4684      	mov	ip, r0
   84936:	bc01      	pop	{r0}
   84938:	4760      	bx	ip
   8493a:	bf00      	nop
   8493c:	0c00226d 	.word	0x0c00226d

00084940 <__ipc_send_message_veneer>:
   84940:	b401      	push	{r0}
   84942:	4802      	ldr	r0, [pc, #8]	; (8494c <__ipc_send_message_veneer+0xc>)
   84944:	4684      	mov	ip, r0
   84946:	bc01      	pop	{r0}
   84948:	4760      	bx	ip
   8494a:	bf00      	nop
   8494c:	0c0025e5 	.word	0x0c0025e5

00084950 <__TaskIdle_8721D_veneer>:
   84950:	b401      	push	{r0}
   84952:	4802      	ldr	r0, [pc, #8]	; (8495c <__TaskIdle_8721D_veneer+0xc>)
   84954:	4684      	mov	ip, r0
   84956:	bc01      	pop	{r0}
   84958:	4760      	bx	ip
   8495a:	bf00      	nop
   8495c:	0c00629d 	.word	0x0c00629d

00084960 <__km4_set_wake_event_veneer>:
   84960:	b401      	push	{r0}
   84962:	4802      	ldr	r0, [pc, #8]	; (8496c <__km4_set_wake_event_veneer+0xc>)
   84964:	4684      	mov	ip, r0
   84966:	bc01      	pop	{r0}
   84968:	4760      	bx	ip
   8496a:	bf00      	nop
   8496c:	0c0041a9 	.word	0x0c0041a9

00084970 <__SOCPS_DsleepInit_veneer>:
   84970:	b401      	push	{r0}
   84972:	4802      	ldr	r0, [pc, #8]	; (8497c <__SOCPS_DsleepInit_veneer+0xc>)
   84974:	4684      	mov	ip, r0
   84976:	bc01      	pop	{r0}
   84978:	4760      	bx	ip
   8497a:	bf00      	nop
   8497c:	0c004d31 	.word	0x0c004d31

Disassembly of section .xip_image2.text:

0c000020 <vTaskStackAddr>:
 c000020:	b510      	push	{r4, lr}
 c000022:	f005 fd03 	bl	c005a2c <xTaskGetCurrentTaskHandle>
 c000026:	6b00      	ldr	r0, [r0, #48]	; 0x30
 c000028:	bd10      	pop	{r4, pc}
 c00002a:	bf00      	nop

0c00002c <vTaskStackSize>:
 c00002c:	b510      	push	{r4, lr}
 c00002e:	f005 fcfd 	bl	c005a2c <xTaskGetCurrentTaskHandle>
 c000032:	6c03      	ldr	r3, [r0, #64]	; 0x40
 c000034:	6b00      	ldr	r0, [r0, #48]	; 0x30
 c000036:	1a18      	subs	r0, r3, r0
 c000038:	1080      	asrs	r0, r0, #2
 c00003a:	3001      	adds	r0, #1
 c00003c:	bd10      	pop	{r4, pc}
 c00003e:	bf00      	nop

0c000040 <os_heap_init>:
 c000040:	f644 1080 	movw	r0, #18816	; 0x4980
 c000044:	b510      	push	{r4, lr}
 c000046:	f2c0 0008 	movt	r0, #8
 c00004a:	f000 f8ab 	bl	c0001a4 <vPortDefineHeapRegions>
 c00004e:	bd10      	pop	{r4, pc}

0c000050 <prvInsertBlockIntoFreeList>:
 c000050:	f245 3230 	movw	r2, #21296	; 0x5330
 c000054:	b510      	push	{r4, lr}
 c000056:	f2c0 0208 	movt	r2, #8
 c00005a:	e000      	b.n	c00005e <prvInsertBlockIntoFreeList+0xe>
 c00005c:	001a      	movs	r2, r3
 c00005e:	6813      	ldr	r3, [r2, #0]
 c000060:	4283      	cmp	r3, r0
 c000062:	d3fb      	bcc.n	c00005c <prvInsertBlockIntoFreeList+0xc>
 c000064:	6851      	ldr	r1, [r2, #4]
 c000066:	1854      	adds	r4, r2, r1
 c000068:	42a0      	cmp	r0, r4
 c00006a:	d016      	beq.n	c00009a <prvInsertBlockIntoFreeList+0x4a>
 c00006c:	6841      	ldr	r1, [r0, #4]
 c00006e:	1844      	adds	r4, r0, r1
 c000070:	42a3      	cmp	r3, r4
 c000072:	d004      	beq.n	c00007e <prvInsertBlockIntoFreeList+0x2e>
 c000074:	6003      	str	r3, [r0, #0]
 c000076:	4290      	cmp	r0, r2
 c000078:	d000      	beq.n	c00007c <prvInsertBlockIntoFreeList+0x2c>
 c00007a:	6010      	str	r0, [r2, #0]
 c00007c:	bd10      	pop	{r4, pc}
 c00007e:	f245 3420 	movw	r4, #21280	; 0x5320
 c000082:	f2c0 0408 	movt	r4, #8
 c000086:	6824      	ldr	r4, [r4, #0]
 c000088:	42a3      	cmp	r3, r4
 c00008a:	d0f3      	beq.n	c000074 <prvInsertBlockIntoFreeList+0x24>
 c00008c:	685c      	ldr	r4, [r3, #4]
 c00008e:	681b      	ldr	r3, [r3, #0]
 c000090:	46a4      	mov	ip, r4
 c000092:	4461      	add	r1, ip
 c000094:	6041      	str	r1, [r0, #4]
 c000096:	6003      	str	r3, [r0, #0]
 c000098:	e7ed      	b.n	c000076 <prvInsertBlockIntoFreeList+0x26>
 c00009a:	6840      	ldr	r0, [r0, #4]
 c00009c:	1809      	adds	r1, r1, r0
 c00009e:	6051      	str	r1, [r2, #4]
 c0000a0:	0010      	movs	r0, r2
 c0000a2:	e7e4      	b.n	c00006e <prvInsertBlockIntoFreeList+0x1e>

0c0000a4 <pvPortMalloc>:
 c0000a4:	b5f0      	push	{r4, r5, r6, r7, lr}
 c0000a6:	46c6      	mov	lr, r8
 c0000a8:	b500      	push	{lr}
 c0000aa:	0004      	movs	r4, r0
 c0000ac:	f005 fa2a 	bl	c005504 <vTaskSuspendAll>
 c0000b0:	f245 3324 	movw	r3, #21284	; 0x5324
 c0000b4:	f2c0 0308 	movt	r3, #8
 c0000b8:	681e      	ldr	r6, [r3, #0]
 c0000ba:	f240 0800 	movw	r8, #0
 c0000be:	4234      	tst	r4, r6
 c0000c0:	d13d      	bne.n	c00013e <pvPortMalloc+0x9a>
 c0000c2:	b3e4      	cbz	r4, c00013e <pvPortMalloc+0x9a>
 c0000c4:	0021      	movs	r1, r4
 c0000c6:	231f      	movs	r3, #31
 c0000c8:	3120      	adds	r1, #32
 c0000ca:	420b      	tst	r3, r1
 c0000cc:	d001      	beq.n	c0000d2 <pvPortMalloc+0x2e>
 c0000ce:	4399      	bics	r1, r3
 c0000d0:	3120      	adds	r1, #32
 c0000d2:	f240 0800 	movw	r8, #0
 c0000d6:	b391      	cbz	r1, c00013e <pvPortMalloc+0x9a>
 c0000d8:	f245 3728 	movw	r7, #21288	; 0x5328
 c0000dc:	f2c0 0708 	movt	r7, #8
 c0000e0:	683d      	ldr	r5, [r7, #0]
 c0000e2:	42a9      	cmp	r1, r5
 c0000e4:	d82b      	bhi.n	c00013e <pvPortMalloc+0x9a>
 c0000e6:	f245 3030 	movw	r0, #21296	; 0x5330
 c0000ea:	f2c0 0008 	movt	r0, #8
 c0000ee:	6804      	ldr	r4, [r0, #0]
 c0000f0:	e003      	b.n	c0000fa <pvPortMalloc+0x56>
 c0000f2:	6823      	ldr	r3, [r4, #0]
 c0000f4:	b123      	cbz	r3, c000100 <pvPortMalloc+0x5c>
 c0000f6:	0020      	movs	r0, r4
 c0000f8:	001c      	movs	r4, r3
 c0000fa:	6862      	ldr	r2, [r4, #4]
 c0000fc:	4291      	cmp	r1, r2
 c0000fe:	d8f8      	bhi.n	c0000f2 <pvPortMalloc+0x4e>
 c000100:	f245 3320 	movw	r3, #21280	; 0x5320
 c000104:	f2c0 0308 	movt	r3, #8
 c000108:	681b      	ldr	r3, [r3, #0]
 c00010a:	429c      	cmp	r4, r3
 c00010c:	d024      	beq.n	c000158 <pvPortMalloc+0xb4>
 c00010e:	f240 0c20 	movw	ip, #32
 c000112:	6803      	ldr	r3, [r0, #0]
 c000114:	4463      	add	r3, ip
 c000116:	4698      	mov	r8, r3
 c000118:	6823      	ldr	r3, [r4, #0]
 c00011a:	6003      	str	r3, [r0, #0]
 c00011c:	1a53      	subs	r3, r2, r1
 c00011e:	2b40      	cmp	r3, #64	; 0x40
 c000120:	d813      	bhi.n	c00014a <pvPortMalloc+0xa6>
 c000122:	f245 332c 	movw	r3, #21292	; 0x532c
 c000126:	f2c0 0308 	movt	r3, #8
 c00012a:	6819      	ldr	r1, [r3, #0]
 c00012c:	1aad      	subs	r5, r5, r2
 c00012e:	603d      	str	r5, [r7, #0]
 c000130:	428d      	cmp	r5, r1
 c000132:	d200      	bcs.n	c000136 <pvPortMalloc+0x92>
 c000134:	601d      	str	r5, [r3, #0]
 c000136:	2300      	movs	r3, #0
 c000138:	4332      	orrs	r2, r6
 c00013a:	6062      	str	r2, [r4, #4]
 c00013c:	6023      	str	r3, [r4, #0]
 c00013e:	f005 fab1 	bl	c0056a4 <xTaskResumeAll>
 c000142:	4640      	mov	r0, r8
 c000144:	bc04      	pop	{r2}
 c000146:	4690      	mov	r8, r2
 c000148:	bdf0      	pop	{r4, r5, r6, r7, pc}
 c00014a:	1860      	adds	r0, r4, r1
 c00014c:	6043      	str	r3, [r0, #4]
 c00014e:	6061      	str	r1, [r4, #4]
 c000150:	f7ff ff7e 	bl	c000050 <prvInsertBlockIntoFreeList>
 c000154:	6862      	ldr	r2, [r4, #4]
 c000156:	e7e4      	b.n	c000122 <pvPortMalloc+0x7e>
 c000158:	f240 0800 	movw	r8, #0
 c00015c:	e7ef      	b.n	c00013e <pvPortMalloc+0x9a>
 c00015e:	bf00      	nop

0c000160 <vPortFree>:
 c000160:	b510      	push	{r4, lr}
 c000162:	b158      	cbz	r0, c00017c <vPortFree+0x1c>
 c000164:	f245 3324 	movw	r3, #21284	; 0x5324
 c000168:	3820      	subs	r0, #32
 c00016a:	f2c0 0308 	movt	r3, #8
 c00016e:	6842      	ldr	r2, [r0, #4]
 c000170:	681b      	ldr	r3, [r3, #0]
 c000172:	0004      	movs	r4, r0
 c000174:	4213      	tst	r3, r2
 c000176:	d001      	beq.n	c00017c <vPortFree+0x1c>
 c000178:	6801      	ldr	r1, [r0, #0]
 c00017a:	b101      	cbz	r1, c00017e <vPortFree+0x1e>
 c00017c:	bd10      	pop	{r4, pc}
 c00017e:	439a      	bics	r2, r3
 c000180:	6042      	str	r2, [r0, #4]
 c000182:	f005 f9bf 	bl	c005504 <vTaskSuspendAll>
 c000186:	f245 3328 	movw	r3, #21288	; 0x5328
 c00018a:	f2c0 0308 	movt	r3, #8
 c00018e:	6819      	ldr	r1, [r3, #0]
 c000190:	6862      	ldr	r2, [r4, #4]
 c000192:	468c      	mov	ip, r1
 c000194:	0020      	movs	r0, r4
 c000196:	4462      	add	r2, ip
 c000198:	601a      	str	r2, [r3, #0]
 c00019a:	f7ff ff59 	bl	c000050 <prvInsertBlockIntoFreeList>
 c00019e:	f005 fa81 	bl	c0056a4 <xTaskResumeAll>
 c0001a2:	e7eb      	b.n	c00017c <vPortFree+0x1c>

0c0001a4 <vPortDefineHeapRegions>:
 c0001a4:	b5f0      	push	{r4, r5, r6, r7, lr}
 c0001a6:	46ce      	mov	lr, r9
 c0001a8:	4647      	mov	r7, r8
 c0001aa:	6841      	ldr	r1, [r0, #4]
 c0001ac:	b580      	push	{r7, lr}
 c0001ae:	2900      	cmp	r1, #0
 c0001b0:	d044      	beq.n	c00023c <vPortDefineHeapRegions+0x98>
 c0001b2:	f245 3920 	movw	r9, #21280	; 0x5320
 c0001b6:	f2c0 0908 	movt	r9, #8
 c0001ba:	464b      	mov	r3, r9
 c0001bc:	f245 3830 	movw	r8, #21296	; 0x5330
 c0001c0:	2400      	movs	r4, #0
 c0001c2:	2700      	movs	r7, #0
 c0001c4:	261f      	movs	r6, #31
 c0001c6:	f240 0c00 	movw	ip, #0
 c0001ca:	681d      	ldr	r5, [r3, #0]
 c0001cc:	f2c0 0808 	movt	r8, #8
 c0001d0:	6802      	ldr	r2, [r0, #0]
 c0001d2:	4216      	tst	r6, r2
 c0001d4:	d005      	beq.n	c0001e2 <vPortDefineHeapRegions+0x3e>
 c0001d6:	0013      	movs	r3, r2
 c0001d8:	331f      	adds	r3, #31
 c0001da:	43b3      	bics	r3, r6
 c0001dc:	1851      	adds	r1, r2, r1
 c0001de:	001a      	movs	r2, r3
 c0001e0:	1ac9      	subs	r1, r1, r3
 c0001e2:	b90c      	cbnz	r4, c0001e8 <vPortDefineHeapRegions+0x44>
 c0001e4:	4643      	mov	r3, r8
 c0001e6:	c314      	stmia	r3!, {r2, r4}
 c0001e8:	1889      	adds	r1, r1, r2
 c0001ea:	000b      	movs	r3, r1
 c0001ec:	4661      	mov	r1, ip
 c0001ee:	3b20      	subs	r3, #32
 c0001f0:	43b3      	bics	r3, r6
 c0001f2:	6059      	str	r1, [r3, #4]
 c0001f4:	6019      	str	r1, [r3, #0]
 c0001f6:	1a99      	subs	r1, r3, r2
 c0001f8:	6051      	str	r1, [r2, #4]
 c0001fa:	6013      	str	r3, [r2, #0]
 c0001fc:	b105      	cbz	r5, c000200 <vPortDefineHeapRegions+0x5c>
 c0001fe:	602a      	str	r2, [r5, #0]
 c000200:	3008      	adds	r0, #8
 c000202:	187f      	adds	r7, r7, r1
 c000204:	6841      	ldr	r1, [r0, #4]
 c000206:	3401      	adds	r4, #1
 c000208:	b109      	cbz	r1, c00020e <vPortDefineHeapRegions+0x6a>
 c00020a:	001d      	movs	r5, r3
 c00020c:	e7e0      	b.n	c0001d0 <vPortDefineHeapRegions+0x2c>
 c00020e:	464a      	mov	r2, r9
 c000210:	6013      	str	r3, [r2, #0]
 c000212:	f245 332c 	movw	r3, #21292	; 0x532c
 c000216:	f2c0 0308 	movt	r3, #8
 c00021a:	601f      	str	r7, [r3, #0]
 c00021c:	f245 3328 	movw	r3, #21288	; 0x5328
 c000220:	f2c0 0308 	movt	r3, #8
 c000224:	601f      	str	r7, [r3, #0]
 c000226:	2280      	movs	r2, #128	; 0x80
 c000228:	f245 3324 	movw	r3, #21284	; 0x5324
 c00022c:	0612      	lsls	r2, r2, #24
 c00022e:	f2c0 0308 	movt	r3, #8
 c000232:	601a      	str	r2, [r3, #0]
 c000234:	bc0c      	pop	{r2, r3}
 c000236:	4690      	mov	r8, r2
 c000238:	4699      	mov	r9, r3
 c00023a:	bdf0      	pop	{r4, r5, r6, r7, pc}
 c00023c:	2700      	movs	r7, #0
 c00023e:	e7e8      	b.n	c000212 <vPortDefineHeapRegions+0x6e>

0c000240 <vListInitialise>:
 c000240:	0003      	movs	r3, r0
 c000242:	2201      	movs	r2, #1
 c000244:	3308      	adds	r3, #8
 c000246:	6043      	str	r3, [r0, #4]
 c000248:	60c3      	str	r3, [r0, #12]
 c00024a:	6103      	str	r3, [r0, #16]
 c00024c:	2300      	movs	r3, #0
 c00024e:	4252      	negs	r2, r2
 c000250:	6082      	str	r2, [r0, #8]
 c000252:	6003      	str	r3, [r0, #0]
 c000254:	4770      	bx	lr
 c000256:	bf00      	nop

0c000258 <vListInitialiseItem>:
 c000258:	2300      	movs	r3, #0
 c00025a:	6103      	str	r3, [r0, #16]
 c00025c:	4770      	bx	lr
 c00025e:	bf00      	nop

0c000260 <vListInsertEnd>:
 c000260:	6843      	ldr	r3, [r0, #4]
 c000262:	689a      	ldr	r2, [r3, #8]
 c000264:	604b      	str	r3, [r1, #4]
 c000266:	608a      	str	r2, [r1, #8]
 c000268:	689a      	ldr	r2, [r3, #8]
 c00026a:	6051      	str	r1, [r2, #4]
 c00026c:	6099      	str	r1, [r3, #8]
 c00026e:	6803      	ldr	r3, [r0, #0]
 c000270:	6108      	str	r0, [r1, #16]
 c000272:	3301      	adds	r3, #1
 c000274:	6003      	str	r3, [r0, #0]
 c000276:	4770      	bx	lr

0c000278 <vListInsert>:
 c000278:	0002      	movs	r2, r0
 c00027a:	b530      	push	{r4, r5, lr}
 c00027c:	680c      	ldr	r4, [r1, #0]
 c00027e:	3208      	adds	r2, #8
 c000280:	1c63      	adds	r3, r4, #1
 c000282:	d101      	bne.n	c000288 <vListInsert+0x10>
 c000284:	e00d      	b.n	c0002a2 <vListInsert+0x2a>
 c000286:	001a      	movs	r2, r3
 c000288:	6853      	ldr	r3, [r2, #4]
 c00028a:	681d      	ldr	r5, [r3, #0]
 c00028c:	42ac      	cmp	r4, r5
 c00028e:	d2fa      	bcs.n	c000286 <vListInsert+0xe>
 c000290:	604b      	str	r3, [r1, #4]
 c000292:	6099      	str	r1, [r3, #8]
 c000294:	6803      	ldr	r3, [r0, #0]
 c000296:	608a      	str	r2, [r1, #8]
 c000298:	3301      	adds	r3, #1
 c00029a:	6051      	str	r1, [r2, #4]
 c00029c:	6108      	str	r0, [r1, #16]
 c00029e:	6003      	str	r3, [r0, #0]
 c0002a0:	bd30      	pop	{r4, r5, pc}
 c0002a2:	6902      	ldr	r2, [r0, #16]
 c0002a4:	6853      	ldr	r3, [r2, #4]
 c0002a6:	e7f3      	b.n	c000290 <vListInsert+0x18>

0c0002a8 <uxListRemove>:
 c0002a8:	6842      	ldr	r2, [r0, #4]
 c0002aa:	6881      	ldr	r1, [r0, #8]
 c0002ac:	6903      	ldr	r3, [r0, #16]
 c0002ae:	6091      	str	r1, [r2, #8]
 c0002b0:	6881      	ldr	r1, [r0, #8]
 c0002b2:	604a      	str	r2, [r1, #4]
 c0002b4:	685a      	ldr	r2, [r3, #4]
 c0002b6:	4290      	cmp	r0, r2
 c0002b8:	d006      	beq.n	c0002c8 <uxListRemove+0x20>
 c0002ba:	2200      	movs	r2, #0
 c0002bc:	6102      	str	r2, [r0, #16]
 c0002be:	681a      	ldr	r2, [r3, #0]
 c0002c0:	3a01      	subs	r2, #1
 c0002c2:	601a      	str	r2, [r3, #0]
 c0002c4:	6818      	ldr	r0, [r3, #0]
 c0002c6:	4770      	bx	lr
 c0002c8:	6059      	str	r1, [r3, #4]
 c0002ca:	e7f6      	b.n	c0002ba <uxListRemove+0x12>

0c0002cc <app_rtc_init.part.1>:
 c0002cc:	f644 7389 	movw	r3, #20361	; 0x4f89
 c0002d0:	b510      	push	{r4, lr}
 c0002d2:	2000      	movs	r0, #0
 c0002d4:	b08a      	sub	sp, #40	; 0x28
 c0002d6:	f2c0 0300 	movt	r3, #0
 c0002da:	4798      	blx	r3
 c0002dc:	f242 73a5 	movw	r3, #10149	; 0x27a5
 c0002e0:	a802      	add	r0, sp, #8
 c0002e2:	f6c0 4300 	movt	r3, #3072	; 0xc00
 c0002e6:	4798      	blx	r3
 c0002e8:	f242 73b9 	movw	r3, #10169	; 0x27b9
 c0002ec:	a802      	add	r0, sp, #8
 c0002ee:	f6c0 4300 	movt	r3, #3072	; 0xc00
 c0002f2:	4798      	blx	r3
 c0002f4:	f642 3315 	movw	r3, #11029	; 0x2b15
 c0002f8:	4669      	mov	r1, sp
 c0002fa:	f6c0 4300 	movt	r3, #3072	; 0xc00
 c0002fe:	2000      	movs	r0, #0
 c000300:	4798      	blx	r3
 c000302:	466b      	mov	r3, sp
 c000304:	791b      	ldrb	r3, [r3, #4]
 c000306:	b91b      	cbnz	r3, c000310 <app_rtc_init.part.1+0x44>
 c000308:	466b      	mov	r3, sp
 c00030a:	78db      	ldrb	r3, [r3, #3]
 c00030c:	2b00      	cmp	r3, #0
 c00030e:	d02b      	beq.n	c000368 <app_rtc_init.part.1+0x9c>
 c000310:	f642 634d 	movw	r3, #11853	; 0x2e4d
 c000314:	ac06      	add	r4, sp, #24
 c000316:	0020      	movs	r0, r4
 c000318:	f6c0 4300 	movt	r3, #3072	; 0xc00
 c00031c:	4798      	blx	r3
 c00031e:	2301      	movs	r3, #1
 c000320:	70a3      	strb	r3, [r4, #2]
 c000322:	70e3      	strb	r3, [r4, #3]
 c000324:	231e      	movs	r3, #30
 c000326:	7123      	strb	r3, [r4, #4]
 c000328:	f248 0300 	movw	r3, #32768	; 0x8000
 c00032c:	f2c0 0380 	movt	r3, #128	; 0x80
 c000330:	60a3      	str	r3, [r4, #8]
 c000332:	f240 2300 	movw	r3, #512	; 0x200
 c000336:	60e3      	str	r3, [r4, #12]
 c000338:	f642 33ad 	movw	r3, #11181	; 0x2bad
 c00033c:	2201      	movs	r2, #1
 c00033e:	f6c0 4300 	movt	r3, #3072	; 0xc00
 c000342:	0021      	movs	r1, r4
 c000344:	2000      	movs	r0, #0
 c000346:	8022      	strh	r2, [r4, #0]
 c000348:	4798      	blx	r3
 c00034a:	f644 7394 	movw	r3, #20372	; 0x4f94
 c00034e:	f2c0 0308 	movt	r3, #8
 c000352:	695b      	ldr	r3, [r3, #20]
 c000354:	b133      	cbz	r3, c000364 <app_rtc_init.part.1+0x98>
 c000356:	f642 7319 	movw	r3, #12057	; 0x2f19
 c00035a:	2101      	movs	r1, #1
 c00035c:	2001      	movs	r0, #1
 c00035e:	f6c0 4300 	movt	r3, #3072	; 0xc00
 c000362:	4798      	blx	r3
 c000364:	b00a      	add	sp, #40	; 0x28
 c000366:	bd10      	pop	{r4, pc}
 c000368:	f642 03ad 	movw	r3, #10413	; 0x28ad
 c00036c:	4668      	mov	r0, sp
 c00036e:	f6c0 4300 	movt	r3, #3072	; 0xc00
 c000372:	4798      	blx	r3
 c000374:	f642 03bd 	movw	r3, #10429	; 0x28bd
 c000378:	4669      	mov	r1, sp
 c00037a:	f6c0 4300 	movt	r3, #3072	; 0xc00
 c00037e:	2000      	movs	r0, #0
 c000380:	4798      	blx	r3
 c000382:	e7c5      	b.n	c000310 <app_rtc_init.part.1+0x44>

0c000384 <app_dslp_wake>:
 c000384:	b570      	push	{r4, r5, r6, lr}
 c000386:	f240 14cc 	movw	r4, #460	; 0x1cc
 c00038a:	2680      	movs	r6, #128	; 0x80
 c00038c:	f013 fd98 	bl	c013ec0 <__SOCPS_AONWakeReason_veneer>
 c000390:	f2c0 0408 	movt	r4, #8
 c000394:	6823      	ldr	r3, [r4, #0]
 c000396:	02b6      	lsls	r6, r6, #10
 c000398:	0005      	movs	r5, r0
 c00039a:	4233      	tst	r3, r6
 c00039c:	d13d      	bne.n	c00041a <app_dslp_wake+0x96>
 c00039e:	07ab      	lsls	r3, r5, #30
 c0003a0:	d512      	bpl.n	c0003c8 <app_dslp_wake+0x44>
 c0003a2:	6823      	ldr	r3, [r4, #0]
 c0003a4:	039b      	lsls	r3, r3, #14
 c0003a6:	d409      	bmi.n	c0003bc <app_dslp_wake+0x38>
 c0003a8:	072b      	lsls	r3, r5, #28
 c0003aa:	d51f      	bpl.n	c0003ec <app_dslp_wake+0x68>
 c0003ac:	6823      	ldr	r3, [r4, #0]
 c0003ae:	039b      	lsls	r3, r3, #14
 c0003b0:	d416      	bmi.n	c0003e0 <app_dslp_wake+0x5c>
 c0003b2:	06eb      	lsls	r3, r5, #27
 c0003b4:	d525      	bpl.n	c000402 <app_dslp_wake+0x7e>
 c0003b6:	f003 fe87 	bl	c0040c8 <km4_boot_on>
 c0003ba:	bd70      	pop	{r4, r5, r6, pc}
 c0003bc:	f244 107c 	movw	r0, #16764	; 0x417c
 c0003c0:	f6c0 4001 	movt	r0, #3073	; 0xc01
 c0003c4:	f013 fe74 	bl	c0140b0 <__DiagPrintf_veneer>
 c0003c8:	076b      	lsls	r3, r5, #29
 c0003ca:	d5ed      	bpl.n	c0003a8 <app_dslp_wake+0x24>
 c0003cc:	6823      	ldr	r3, [r4, #0]
 c0003ce:	039b      	lsls	r3, r3, #14
 c0003d0:	d5ea      	bpl.n	c0003a8 <app_dslp_wake+0x24>
 c0003d2:	f244 1094 	movw	r0, #16788	; 0x4194
 c0003d6:	f6c0 4001 	movt	r0, #3073	; 0xc01
 c0003da:	f013 fe69 	bl	c0140b0 <__DiagPrintf_veneer>
 c0003de:	e7e3      	b.n	c0003a8 <app_dslp_wake+0x24>
 c0003e0:	f244 10a8 	movw	r0, #16808	; 0x41a8
 c0003e4:	f6c0 4001 	movt	r0, #3073	; 0xc01
 c0003e8:	f013 fe62 	bl	c0140b0 <__DiagPrintf_veneer>
 c0003ec:	06eb      	lsls	r3, r5, #27
 c0003ee:	d508      	bpl.n	c000402 <app_dslp_wake+0x7e>
 c0003f0:	6823      	ldr	r3, [r4, #0]
 c0003f2:	039b      	lsls	r3, r3, #14
 c0003f4:	d5df      	bpl.n	c0003b6 <app_dslp_wake+0x32>
 c0003f6:	f244 10bc 	movw	r0, #16828	; 0x41bc
 c0003fa:	f6c0 4001 	movt	r0, #3073	; 0xc01
 c0003fe:	f013 fe57 	bl	c0140b0 <__DiagPrintf_veneer>
 c000402:	066b      	lsls	r3, r5, #25
 c000404:	d5d7      	bpl.n	c0003b6 <app_dslp_wake+0x32>
 c000406:	6823      	ldr	r3, [r4, #0]
 c000408:	039b      	lsls	r3, r3, #14
 c00040a:	d5d4      	bpl.n	c0003b6 <app_dslp_wake+0x32>
 c00040c:	f244 10d0 	movw	r0, #16848	; 0x41d0
 c000410:	f6c0 4001 	movt	r0, #3073	; 0xc01
 c000414:	f013 fe4c 	bl	c0140b0 <__DiagPrintf_veneer>
 c000418:	e7cd      	b.n	c0003b6 <app_dslp_wake+0x32>
 c00041a:	0001      	movs	r1, r0
 c00041c:	f244 1050 	movw	r0, #16720	; 0x4150
 c000420:	f6c0 4001 	movt	r0, #3073	; 0xc01
 c000424:	f013 fe44 	bl	c0140b0 <__DiagPrintf_veneer>
 c000428:	07eb      	lsls	r3, r5, #31
 c00042a:	d5b8      	bpl.n	c00039e <app_dslp_wake+0x1a>
 c00042c:	6823      	ldr	r3, [r4, #0]
 c00042e:	4233      	tst	r3, r6
 c000430:	d0b5      	beq.n	c00039e <app_dslp_wake+0x1a>
 c000432:	f013 fdf5 	bl	c014020 <__SOCPS_WakePinCheck_veneer>
 c000436:	0001      	movs	r1, r0
 c000438:	f244 1064 	movw	r0, #16740	; 0x4164
 c00043c:	f6c0 4001 	movt	r0, #3073	; 0xc01
 c000440:	f013 fe36 	bl	c0140b0 <__DiagPrintf_veneer>
 c000444:	e7ab      	b.n	c00039e <app_dslp_wake+0x1a>
 c000446:	bf00      	nop

0c000448 <app_pmu_init>:
 c000448:	f241 4335 	movw	r3, #5173	; 0x1435
 c00044c:	b510      	push	{r4, lr}
 c00044e:	2000      	movs	r0, #0
 c000450:	f2c0 0300 	movt	r3, #0
 c000454:	4798      	blx	r3
 c000456:	f240 1400 	movw	r4, #256	; 0x100
 c00045a:	4204      	tst	r4, r0
 c00045c:	d000      	beq.n	c000460 <app_pmu_init+0x18>
 c00045e:	bd10      	pop	{r4, pc}
 c000460:	2001      	movs	r0, #1
 c000462:	f002 f87b 	bl	c00255c <pmu_set_sleep_type>
 c000466:	2000      	movs	r0, #0
 c000468:	f002 f85e 	bl	c002528 <pmu_acquire_wakelock>
 c00046c:	2001      	movs	r0, #1
 c00046e:	f002 f88b 	bl	c002588 <pmu_tickless_debug>
 c000472:	f240 3238 	movw	r2, #824	; 0x338
 c000476:	21ff      	movs	r1, #255	; 0xff
 c000478:	f6c4 0200 	movt	r2, #18432	; 0x4800
 c00047c:	6813      	ldr	r3, [r2, #0]
 c00047e:	0409      	lsls	r1, r1, #16
 c000480:	4019      	ands	r1, r3
 c000482:	f247 6354 	movw	r3, #30292	; 0x7654
 c000486:	f6c3 7300 	movt	r3, #16128	; 0x3f00
 c00048a:	430b      	orrs	r3, r1
 c00048c:	6013      	str	r3, [r2, #0]
 c00048e:	f240 2344 	movw	r3, #580	; 0x244
 c000492:	f6c4 0300 	movt	r3, #18432	; 0x4800
 c000496:	681a      	ldr	r2, [r3, #0]
 c000498:	4314      	orrs	r4, r2
 c00049a:	f644 12a8 	movw	r2, #18856	; 0x49a8
 c00049e:	601c      	str	r4, [r3, #0]
 c0004a0:	f240 2324 	movw	r3, #548	; 0x224
 c0004a4:	f2c0 0208 	movt	r2, #8
 c0004a8:	6852      	ldr	r2, [r2, #4]
 c0004aa:	f6c4 0300 	movt	r3, #18432	; 0x4800
 c0004ae:	681b      	ldr	r3, [r3, #0]
 c0004b0:	b9ba      	cbnz	r2, c0004e2 <app_pmu_init+0x9a>
 c0004b2:	4a0e      	ldr	r2, [pc, #56]	; (c0004ec <app_pmu_init+0xa4>)
 c0004b4:	4013      	ands	r3, r2
 c0004b6:	f240 2224 	movw	r2, #548	; 0x224
 c0004ba:	f6c4 0200 	movt	r2, #18432	; 0x4800
 c0004be:	6013      	str	r3, [r2, #0]
 c0004c0:	2250      	movs	r2, #80	; 0x50
 c0004c2:	2160      	movs	r1, #96	; 0x60
 c0004c4:	f6c4 0200 	movt	r2, #18432	; 0x4800
 c0004c8:	6813      	ldr	r3, [r2, #0]
 c0004ca:	0a9b      	lsrs	r3, r3, #10
 c0004cc:	029b      	lsls	r3, r3, #10
 c0004ce:	430b      	orrs	r3, r1
 c0004d0:	6013      	str	r3, [r2, #0]
 c0004d2:	f240 5308 	movw	r3, #1288	; 0x508
 c0004d6:	f64d 4200 	movw	r2, #56320	; 0xdc00
 c0004da:	f6c4 0300 	movt	r3, #18432	; 0x4800
 c0004de:	601a      	str	r2, [r3, #0]
 c0004e0:	e7bd      	b.n	c00045e <app_pmu_init+0x16>
 c0004e2:	4a03      	ldr	r2, [pc, #12]	; (c0004f0 <app_pmu_init+0xa8>)
 c0004e4:	4013      	ands	r3, r2
 c0004e6:	2207      	movs	r2, #7
 c0004e8:	4313      	orrs	r3, r2
 c0004ea:	e7e4      	b.n	c0004b6 <app_pmu_init+0x6e>
 c0004ec:	ffff9fff 	.word	0xffff9fff
 c0004f0:	ffff9ff0 	.word	0xffff9ff0

0c0004f4 <app_loguart_lowpower>:
 c0004f4:	b510      	push	{r4, lr}
 c0004f6:	f242 0400 	movw	r4, #8192	; 0x2000
 c0004fa:	f245 0319 	movw	r3, #20505	; 0x5019
 c0004fe:	f6c4 0401 	movt	r4, #18433	; 0x4801
 c000502:	0020      	movs	r0, r4
 c000504:	2101      	movs	r1, #1
 c000506:	f2c0 0300 	movt	r3, #0
 c00050a:	4798      	blx	r3
 c00050c:	f642 73b9 	movw	r3, #12217	; 0x2fb9
 c000510:	2201      	movs	r2, #1
 c000512:	0020      	movs	r0, r4
 c000514:	2164      	movs	r1, #100	; 0x64
 c000516:	f6c0 4300 	movt	r3, #3072	; 0xc00
 c00051a:	4798      	blx	r3
 c00051c:	f243 0385 	movw	r3, #12421	; 0x3085
 c000520:	0020      	movs	r0, r4
 c000522:	2101      	movs	r1, #1
 c000524:	f6c0 4300 	movt	r3, #3072	; 0xc00
 c000528:	4798      	blx	r3
 c00052a:	f248 4280 	movw	r2, #33920	; 0x8480
 c00052e:	21e1      	movs	r1, #225	; 0xe1
 c000530:	f243 030d 	movw	r3, #12301	; 0x300d
 c000534:	f2c0 021e 	movt	r2, #30
 c000538:	0020      	movs	r0, r4
 c00053a:	0249      	lsls	r1, r1, #9
 c00053c:	f6c0 4300 	movt	r3, #3072	; 0xc00
 c000540:	4798      	blx	r3
 c000542:	f244 13dd 	movw	r3, #16861	; 0x41dd
 c000546:	2101      	movs	r1, #1
 c000548:	0020      	movs	r0, r4
 c00054a:	f2c0 0300 	movt	r3, #0
 c00054e:	4798      	blx	r3
 c000550:	bd10      	pop	{r4, pc}
 c000552:	bf00      	nop

0c000554 <main>:
 c000554:	b510      	push	{r4, lr}
 c000556:	f246 0200 	movw	r2, #24576	; 0x6000
 c00055a:	f243 1029 	movw	r0, #12585	; 0x3129
 c00055e:	f245 6499 	movw	r4, #22169	; 0x5699
 c000562:	2308      	movs	r3, #8
 c000564:	f2c4 0200 	movt	r2, #16384	; 0x4000
 c000568:	210e      	movs	r1, #14
 c00056a:	f2c0 0000 	movt	r0, #0
 c00056e:	f2c0 0400 	movt	r4, #0
 c000572:	47a0      	blx	r4
 c000574:	f245 5359 	movw	r3, #21849	; 0x5559
 c000578:	200e      	movs	r0, #14
 c00057a:	f2c0 0300 	movt	r3, #0
 c00057e:	4798      	blx	r3
 c000580:	f644 7394 	movw	r3, #20372	; 0x4f94
 c000584:	f2c0 0308 	movt	r3, #8
 c000588:	68db      	ldr	r3, [r3, #12]
 c00058a:	2b00      	cmp	r3, #0
 c00058c:	d047      	beq.n	c00061e <main+0xca>
 c00058e:	f004 fd3d 	bl	c00500c <shell_init_ram>
 c000592:	f7ff ff59 	bl	c000448 <app_pmu_init>
 c000596:	f245 5375 	movw	r3, #21877	; 0x5575
 c00059a:	2003      	movs	r0, #3
 c00059c:	f2c0 0300 	movt	r3, #0
 c0005a0:	4798      	blx	r3
 c0005a2:	f004 fc67 	bl	c004e74 <SOCPS_DsleepWakeStatusGet>
 c0005a6:	2801      	cmp	r0, #1
 c0005a8:	d03c      	beq.n	c000624 <main+0xd0>
 c0005aa:	f003 fe51 	bl	c004250 <km4_flash_highspeed_init>
 c0005ae:	f003 fd8b 	bl	c0040c8 <km4_boot_on>
 c0005b2:	f004 fc5f 	bl	c004e74 <SOCPS_DsleepWakeStatusGet>
 c0005b6:	2800      	cmp	r0, #0
 c0005b8:	d02e      	beq.n	c000618 <main+0xc4>
 c0005ba:	f241 4335 	movw	r3, #5173	; 0x1435
 c0005be:	2000      	movs	r0, #0
 c0005c0:	f2c0 0300 	movt	r3, #0
 c0005c4:	4798      	blx	r3
 c0005c6:	0503      	lsls	r3, r0, #20
 c0005c8:	d501      	bpl.n	c0005ce <main+0x7a>
 c0005ca:	f007 fb0d 	bl	c007be8 <wifi_FW_init_ram>
 c0005ce:	f240 2308 	movw	r3, #520	; 0x208
 c0005d2:	2280      	movs	r2, #128	; 0x80
 c0005d4:	f6c4 0300 	movt	r3, #18432	; 0x4800
 c0005d8:	6819      	ldr	r1, [r3, #0]
 c0005da:	0552      	lsls	r2, r2, #21
 c0005dc:	430a      	orrs	r2, r1
 c0005de:	601a      	str	r2, [r3, #0]
 c0005e0:	f240 3344 	movw	r3, #836	; 0x344
 c0005e4:	f240 2100 	movw	r1, #512	; 0x200
 c0005e8:	f6c4 0300 	movt	r3, #18432	; 0x4800
 c0005ec:	681a      	ldr	r2, [r3, #0]
 c0005ee:	2001      	movs	r0, #1
 c0005f0:	430a      	orrs	r2, r1
 c0005f2:	601a      	str	r2, [r3, #0]
 c0005f4:	f013 fd4c 	bl	c014090 <__SOCPS_AudioLDO_veneer>
 c0005f8:	f240 13cc 	movw	r3, #460	; 0x1cc
 c0005fc:	2201      	movs	r2, #1
 c0005fe:	f2c0 0308 	movt	r3, #8
 c000602:	4252      	negs	r2, r2
 c000604:	601a      	str	r2, [r3, #0]
 c000606:	2102      	movs	r1, #2
 c000608:	2200      	movs	r2, #0
 c00060a:	6099      	str	r1, [r3, #8]
 c00060c:	605a      	str	r2, [r3, #4]
 c00060e:	60da      	str	r2, [r3, #12]
 c000610:	f004 ff44 	bl	c00549c <vTaskStartScheduler>
 c000614:	2000      	movs	r0, #0
 c000616:	bd10      	pop	{r4, pc}
 c000618:	f7ff fe58 	bl	c0002cc <app_rtc_init.part.1>
 c00061c:	e7cd      	b.n	c0005ba <main+0x66>
 c00061e:	f7ff ff69 	bl	c0004f4 <app_loguart_lowpower>
 c000622:	e7b4      	b.n	c00058e <main+0x3a>
 c000624:	f7ff feae 	bl	c000384 <app_dslp_wake>
 c000628:	e7c3      	b.n	c0005b2 <main+0x5e>
 c00062a:	bf00      	nop

0c00062c <CmdHsSdm32K>:
 c00062c:	f240 13cc 	movw	r3, #460	; 0x1cc
 c000630:	f2c0 0308 	movt	r3, #8
 c000634:	681b      	ldr	r3, [r3, #0]
 c000636:	b510      	push	{r4, lr}
 c000638:	039b      	lsls	r3, r3, #14
 c00063a:	d42a      	bmi.n	c000692 <CmdHsSdm32K+0x66>
 c00063c:	f240 2368 	movw	r3, #616	; 0x268
 c000640:	2102      	movs	r1, #2
 c000642:	f6c4 0300 	movt	r3, #18432	; 0x4800
 c000646:	681a      	ldr	r2, [r3, #0]
 c000648:	2001      	movs	r0, #1
 c00064a:	438a      	bics	r2, r1
 c00064c:	601a      	str	r2, [r3, #0]
 c00064e:	f240 2328 	movw	r3, #552	; 0x228
 c000652:	f6c4 0300 	movt	r3, #18432	; 0x4800
 c000656:	681a      	ldr	r2, [r3, #0]
 c000658:	4911      	ldr	r1, [pc, #68]	; (c0006a0 <CmdHsSdm32K+0x74>)
 c00065a:	400a      	ands	r2, r1
 c00065c:	601a      	str	r2, [r3, #0]
 c00065e:	23e8      	movs	r3, #232	; 0xe8
 c000660:	211f      	movs	r1, #31
 c000662:	f2c4 0308 	movt	r3, #16392	; 0x4008
 c000666:	681a      	ldr	r2, [r3, #0]
 c000668:	438a      	bics	r2, r1
 c00066a:	601a      	str	r2, [r3, #0]
 c00066c:	23ec      	movs	r3, #236	; 0xec
 c00066e:	22c0      	movs	r2, #192	; 0xc0
 c000670:	f2c4 0308 	movt	r3, #16392	; 0x4008
 c000674:	6819      	ldr	r1, [r3, #0]
 c000676:	0612      	lsls	r2, r2, #24
 c000678:	430a      	orrs	r2, r1
 c00067a:	601a      	str	r2, [r3, #0]
 c00067c:	2300      	movs	r3, #0
 c00067e:	f2c4 0308 	movt	r3, #16392	; 0x4008
 c000682:	681a      	ldr	r2, [r3, #0]
 c000684:	4907      	ldr	r1, [pc, #28]	; (c0006a4 <CmdHsSdm32K+0x78>)
 c000686:	4011      	ands	r1, r2
 c000688:	2280      	movs	r2, #128	; 0x80
 c00068a:	0352      	lsls	r2, r2, #13
 c00068c:	430a      	orrs	r2, r1
 c00068e:	601a      	str	r2, [r3, #0]
 c000690:	bd10      	pop	{r4, pc}
 c000692:	f244 10f0 	movw	r0, #16880	; 0x41f0
 c000696:	f6c0 4001 	movt	r0, #3073	; 0xc01
 c00069a:	f013 fd09 	bl	c0140b0 <__DiagPrintf_veneer>
 c00069e:	e7cd      	b.n	c00063c <CmdHsSdm32K+0x10>
 c0006a0:	fff0ffff 	.word	0xfff0ffff
 c0006a4:	ffcfffff 	.word	0xffcfffff

0c0006a8 <cmd_reboot>:
 c0006a8:	f243 63f1 	movw	r3, #14065	; 0x36f1
 c0006ac:	b530      	push	{r4, r5, lr}
 c0006ae:	f2c0 0308 	movt	r3, #8
 c0006b2:	b087      	sub	sp, #28
 c0006b4:	000d      	movs	r5, r1
 c0006b6:	f240 2000 	movw	r0, #512	; 0x200
 c0006ba:	2101      	movs	r1, #1
 c0006bc:	4798      	blx	r3
 c0006be:	f244 14dd 	movw	r4, #16861	; 0x41dd
 c0006c2:	f242 0000 	movw	r0, #8192	; 0x2000
 c0006c6:	2100      	movs	r1, #0
 c0006c8:	f6c4 0001 	movt	r0, #18433	; 0x4801
 c0006cc:	f2c0 0400 	movt	r4, #0
 c0006d0:	47a0      	blx	r4
 c0006d2:	f242 0000 	movw	r0, #8192	; 0x2000
 c0006d6:	f245 0319 	movw	r3, #20505	; 0x5019
 c0006da:	2100      	movs	r1, #0
 c0006dc:	f6c4 0001 	movt	r0, #18433	; 0x4801
 c0006e0:	f2c0 0300 	movt	r3, #0
 c0006e4:	4798      	blx	r3
 c0006e6:	f242 0000 	movw	r0, #8192	; 0x2000
 c0006ea:	f243 0385 	movw	r3, #12421	; 0x3085
 c0006ee:	2100      	movs	r1, #0
 c0006f0:	f6c4 0001 	movt	r0, #18433	; 0x4801
 c0006f4:	f6c0 4300 	movt	r3, #3072	; 0xc00
 c0006f8:	4798      	blx	r3
 c0006fa:	21e1      	movs	r1, #225	; 0xe1
 c0006fc:	f242 0000 	movw	r0, #8192	; 0x2000
 c000700:	f244 03b1 	movw	r3, #16561	; 0x40b1
 c000704:	0249      	lsls	r1, r1, #9
 c000706:	f2c0 0300 	movt	r3, #0
 c00070a:	f6c4 0001 	movt	r0, #18433	; 0x4801
 c00070e:	4798      	blx	r3
 c000710:	f242 0000 	movw	r0, #8192	; 0x2000
 c000714:	2101      	movs	r1, #1
 c000716:	f6c4 0001 	movt	r0, #18433	; 0x4801
 c00071a:	47a0      	blx	r4
 c00071c:	f244 5178 	movw	r1, #17784	; 0x4578
 c000720:	f646 53e9 	movw	r3, #28137	; 0x6de9
 c000724:	6828      	ldr	r0, [r5, #0]
 c000726:	f6c0 4101 	movt	r1, #3073	; 0xc01
 c00072a:	f2c0 0300 	movt	r3, #0
 c00072e:	4798      	blx	r3
 c000730:	b308      	cbz	r0, c000776 <cmd_reboot+0xce>
 c000732:	f240 13cc 	movw	r3, #460	; 0x1cc
 c000736:	f2c0 0308 	movt	r3, #8
 c00073a:	681b      	ldr	r3, [r3, #0]
 c00073c:	039b      	lsls	r3, r3, #14
 c00073e:	d42b      	bmi.n	c000798 <cmd_reboot+0xf0>
 c000740:	f243 0399 	movw	r3, #12441	; 0x3099
 c000744:	aa02      	add	r2, sp, #8
 c000746:	a901      	add	r1, sp, #4
 c000748:	2005      	movs	r0, #5
 c00074a:	f6c0 4300 	movt	r3, #3072	; 0xc00
 c00074e:	4798      	blx	r3
 c000750:	9b01      	ldr	r3, [sp, #4]
 c000752:	a803      	add	r0, sp, #12
 c000754:	9303      	str	r3, [sp, #12]
 c000756:	9b02      	ldr	r3, [sp, #8]
 c000758:	9304      	str	r3, [sp, #16]
 c00075a:	f243 03f1 	movw	r3, #12529	; 0x30f1
 c00075e:	f6c0 4300 	movt	r3, #3072	; 0xc00
 c000762:	4798      	blx	r3
 c000764:	f243 1339 	movw	r3, #12601	; 0x3139
 c000768:	2001      	movs	r0, #1
 c00076a:	f6c0 4300 	movt	r3, #3072	; 0xc00
 c00076e:	4798      	blx	r3
 c000770:	2001      	movs	r0, #1
 c000772:	b007      	add	sp, #28
 c000774:	bd30      	pop	{r4, r5, pc}
 c000776:	f013 fadb 	bl	c013d30 <__FLASH_Write_Lock_veneer>
 c00077a:	f241 4355 	movw	r3, #5205	; 0x1455
 c00077e:	f240 2100 	movw	r1, #512	; 0x200
 c000782:	f2c0 0300 	movt	r3, #0
 c000786:	2000      	movs	r0, #0
 c000788:	4798      	blx	r3
 c00078a:	f240 13cc 	movw	r3, #460	; 0x1cc
 c00078e:	f2c0 0308 	movt	r3, #8
 c000792:	681b      	ldr	r3, [r3, #0]
 c000794:	039b      	lsls	r3, r3, #14
 c000796:	d5d3      	bpl.n	c000740 <cmd_reboot+0x98>
 c000798:	f244 5084 	movw	r0, #17796	; 0x4584
 c00079c:	f6c0 4001 	movt	r0, #3073	; 0xc01
 c0007a0:	f013 fc86 	bl	c0140b0 <__DiagPrintf_veneer>
 c0007a4:	e7cc      	b.n	c000740 <cmd_reboot+0x98>
 c0007a6:	bf00      	nop

0c0007a8 <CmdTickPS>:
 c0007a8:	b570      	push	{r4, r5, r6, lr}
 c0007aa:	000d      	movs	r5, r1
 c0007ac:	f646 54e9 	movw	r4, #28137	; 0x6de9
 c0007b0:	f244 21c8 	movw	r1, #17096	; 0x42c8
 c0007b4:	6828      	ldr	r0, [r5, #0]
 c0007b6:	f6c0 4101 	movt	r1, #3073	; 0xc01
 c0007ba:	f2c0 0400 	movt	r4, #0
 c0007be:	47a0      	blx	r4
 c0007c0:	b348      	cbz	r0, c000816 <CmdTickPS+0x6e>
 c0007c2:	f244 21d4 	movw	r1, #17108	; 0x42d4
 c0007c6:	6828      	ldr	r0, [r5, #0]
 c0007c8:	f6c0 4101 	movt	r1, #3073	; 0xc01
 c0007cc:	47a0      	blx	r4
 c0007ce:	2800      	cmp	r0, #0
 c0007d0:	d036      	beq.n	c000840 <CmdTickPS+0x98>
 c0007d2:	f244 21d8 	movw	r1, #17112	; 0x42d8
 c0007d6:	6828      	ldr	r0, [r5, #0]
 c0007d8:	f6c0 4101 	movt	r1, #3073	; 0xc01
 c0007dc:	47a0      	blx	r4
 c0007de:	2800      	cmp	r0, #0
 c0007e0:	d038      	beq.n	c000854 <CmdTickPS+0xac>
 c0007e2:	f244 21e8 	movw	r1, #17128	; 0x42e8
 c0007e6:	6828      	ldr	r0, [r5, #0]
 c0007e8:	f6c0 4101 	movt	r1, #3073	; 0xc01
 c0007ec:	47a0      	blx	r4
 c0007ee:	2800      	cmp	r0, #0
 c0007f0:	d042      	beq.n	c000878 <CmdTickPS+0xd0>
 c0007f2:	f244 21f0 	movw	r1, #17136	; 0x42f0
 c0007f6:	6828      	ldr	r0, [r5, #0]
 c0007f8:	f6c0 4101 	movt	r1, #3073	; 0xc01
 c0007fc:	47a0      	blx	r4
 c0007fe:	b940      	cbnz	r0, c000812 <CmdTickPS+0x6a>
 c000800:	f240 14cc 	movw	r4, #460	; 0x1cc
 c000804:	2580      	movs	r5, #128	; 0x80
 c000806:	f2c0 0408 	movt	r4, #8
 c00080a:	6823      	ldr	r3, [r4, #0]
 c00080c:	02ad      	lsls	r5, r5, #10
 c00080e:	422b      	tst	r3, r5
 c000810:	d14a      	bne.n	c0008a8 <CmdTickPS+0x100>
 c000812:	2001      	movs	r0, #1
 c000814:	bd70      	pop	{r4, r5, r6, pc}
 c000816:	f244 21cc 	movw	r1, #17100	; 0x42cc
 c00081a:	6868      	ldr	r0, [r5, #4]
 c00081c:	f6c0 4101 	movt	r1, #3073	; 0xc01
 c000820:	47a0      	blx	r4
 c000822:	b3e8      	cbz	r0, c0008a0 <CmdTickPS+0xf8>
 c000824:	2000      	movs	r0, #0
 c000826:	f001 feaf 	bl	c002588 <pmu_tickless_debug>
 c00082a:	2000      	movs	r0, #0
 c00082c:	f001 fe86 	bl	c00253c <pmu_release_wakelock>
 c000830:	f244 21d4 	movw	r1, #17108	; 0x42d4
 c000834:	6828      	ldr	r0, [r5, #0]
 c000836:	f6c0 4101 	movt	r1, #3073	; 0xc01
 c00083a:	47a0      	blx	r4
 c00083c:	2800      	cmp	r0, #0
 c00083e:	d1c8      	bne.n	c0007d2 <CmdTickPS+0x2a>
 c000840:	f001 fe72 	bl	c002528 <pmu_acquire_wakelock>
 c000844:	f244 21d8 	movw	r1, #17112	; 0x42d8
 c000848:	6828      	ldr	r0, [r5, #0]
 c00084a:	f6c0 4101 	movt	r1, #3073	; 0xc01
 c00084e:	47a0      	blx	r4
 c000850:	2800      	cmp	r0, #0
 c000852:	d1c6      	bne.n	c0007e2 <CmdTickPS+0x3a>
 c000854:	f244 21e0 	movw	r1, #17120	; 0x42e0
 c000858:	6868      	ldr	r0, [r5, #4]
 c00085a:	f6c0 4101 	movt	r1, #3073	; 0xc01
 c00085e:	47a0      	blx	r4
 c000860:	b1d0      	cbz	r0, c000898 <CmdTickPS+0xf0>
 c000862:	f244 21e4 	movw	r1, #17124	; 0x42e4
 c000866:	6868      	ldr	r0, [r5, #4]
 c000868:	f6c0 4101 	movt	r1, #3073	; 0xc01
 c00086c:	47a0      	blx	r4
 c00086e:	b998      	cbnz	r0, c000898 <CmdTickPS+0xf0>
 c000870:	3001      	adds	r0, #1
 c000872:	f001 fe73 	bl	c00255c <pmu_set_sleep_type>
 c000876:	e7b4      	b.n	c0007e2 <CmdTickPS+0x3a>
 c000878:	f647 13d9 	movw	r3, #31193	; 0x79d9
 c00087c:	220a      	movs	r2, #10
 c00087e:	2100      	movs	r1, #0
 c000880:	f2c0 0300 	movt	r3, #0
 c000884:	6868      	ldr	r0, [r5, #4]
 c000886:	4798      	blx	r3
 c000888:	f013 fbea 	bl	c014060 <__SOCPS_AONTimer_veneer>
 c00088c:	2001      	movs	r0, #1
 c00088e:	f013 fab7 	bl	c013e00 <__SOCPS_AONTimerCmd_veneer>
 c000892:	f013 f9f5 	bl	c013c80 <__SOCPS_DeepSleep_RAM_veneer>
 c000896:	e7ac      	b.n	c0007f2 <CmdTickPS+0x4a>
 c000898:	2000      	movs	r0, #0
 c00089a:	f001 fe5f 	bl	c00255c <pmu_set_sleep_type>
 c00089e:	e7a0      	b.n	c0007e2 <CmdTickPS+0x3a>
 c0008a0:	3001      	adds	r0, #1
 c0008a2:	f001 fe71 	bl	c002588 <pmu_tickless_debug>
 c0008a6:	e7c0      	b.n	c00082a <CmdTickPS+0x82>
 c0008a8:	f001 fe52 	bl	c002550 <pmu_get_wakelock_status>
 c0008ac:	0001      	movs	r1, r0
 c0008ae:	f244 20f4 	movw	r0, #17140	; 0x42f4
 c0008b2:	f6c0 4001 	movt	r0, #3073	; 0xc01
 c0008b6:	f013 fbfb 	bl	c0140b0 <__DiagPrintf_veneer>
 c0008ba:	6823      	ldr	r3, [r4, #0]
 c0008bc:	422b      	tst	r3, r5
 c0008be:	d0a8      	beq.n	c000812 <CmdTickPS+0x6a>
 c0008c0:	f001 fe5c 	bl	c00257c <pmu_get_deepwakelock_status>
 c0008c4:	0001      	movs	r1, r0
 c0008c6:	f244 3004 	movw	r0, #17156	; 0x4304
 c0008ca:	f6c0 4001 	movt	r0, #3073	; 0xc01
 c0008ce:	f013 fbef 	bl	c0140b0 <__DiagPrintf_veneer>
 c0008d2:	e79e      	b.n	c000812 <CmdTickPS+0x6a>

0c0008d4 <CmdRTC>:
 c0008d4:	b5f0      	push	{r4, r5, r6, r7, lr}
 c0008d6:	46c6      	mov	lr, r8
 c0008d8:	000d      	movs	r5, r1
 c0008da:	f646 54e9 	movw	r4, #28137	; 0x6de9
 c0008de:	f244 21f0 	movw	r1, #17136	; 0x42f0
 c0008e2:	b500      	push	{lr}
 c0008e4:	f6c0 4101 	movt	r1, #3073	; 0xc01
 c0008e8:	b088      	sub	sp, #32
 c0008ea:	6828      	ldr	r0, [r5, #0]
 c0008ec:	f2c0 0400 	movt	r4, #0
 c0008f0:	47a0      	blx	r4
 c0008f2:	2800      	cmp	r0, #0
 c0008f4:	d038      	beq.n	c000968 <CmdRTC+0x94>
 c0008f6:	f244 213c 	movw	r1, #16956	; 0x423c
 c0008fa:	6828      	ldr	r0, [r5, #0]
 c0008fc:	f6c0 4101 	movt	r1, #3073	; 0xc01
 c000900:	47a0      	blx	r4
 c000902:	4680      	mov	r8, r0
 c000904:	b120      	cbz	r0, c000910 <CmdRTC+0x3c>
 c000906:	2001      	movs	r0, #1
 c000908:	b008      	add	sp, #32
 c00090a:	bc04      	pop	{r2}
 c00090c:	4690      	mov	r8, r2
 c00090e:	bdf0      	pop	{r4, r5, r6, r7, pc}
 c000910:	f642 03ad 	movw	r3, #10413	; 0x28ad
 c000914:	f647 17d9 	movw	r7, #31193	; 0x79d9
 c000918:	ae02      	add	r6, sp, #8
 c00091a:	f6c0 4300 	movt	r3, #3072	; 0xc00
 c00091e:	0030      	movs	r0, r6
 c000920:	4798      	blx	r3
 c000922:	f2c0 0700 	movt	r7, #0
 c000926:	220a      	movs	r2, #10
 c000928:	2100      	movs	r1, #0
 c00092a:	6868      	ldr	r0, [r5, #4]
 c00092c:	47b8      	blx	r7
 c00092e:	220a      	movs	r2, #10
 c000930:	70b0      	strb	r0, [r6, #2]
 c000932:	2100      	movs	r1, #0
 c000934:	68a8      	ldr	r0, [r5, #8]
 c000936:	47b8      	blx	r7
 c000938:	2100      	movs	r1, #0
 c00093a:	70f0      	strb	r0, [r6, #3]
 c00093c:	220a      	movs	r2, #10
 c00093e:	68e8      	ldr	r0, [r5, #12]
 c000940:	47b8      	blx	r7
 c000942:	f244 2140 	movw	r1, #16960	; 0x4240
 c000946:	7130      	strb	r0, [r6, #4]
 c000948:	f6c0 4101 	movt	r1, #3073	; 0xc01
 c00094c:	6968      	ldr	r0, [r5, #20]
 c00094e:	47a0      	blx	r4
 c000950:	2800      	cmp	r0, #0
 c000952:	d047      	beq.n	c0009e4 <CmdRTC+0x110>
 c000954:	4643      	mov	r3, r8
 c000956:	7173      	strb	r3, [r6, #5]
 c000958:	f642 03bd 	movw	r3, #10429	; 0x28bd
 c00095c:	0031      	movs	r1, r6
 c00095e:	f6c0 4300 	movt	r3, #3072	; 0xc00
 c000962:	2000      	movs	r0, #0
 c000964:	4798      	blx	r3
 c000966:	e7ce      	b.n	c000906 <CmdRTC+0x32>
 c000968:	f642 3315 	movw	r3, #11029	; 0x2b15
 c00096c:	a902      	add	r1, sp, #8
 c00096e:	f6c0 4300 	movt	r3, #3072	; 0xc00
 c000972:	4798      	blx	r3
 c000974:	f240 16cc 	movw	r6, #460	; 0x1cc
 c000978:	f642 636d 	movw	r3, #11885	; 0x2e6d
 c00097c:	2780      	movs	r7, #128	; 0x80
 c00097e:	f6c0 4300 	movt	r3, #3072	; 0xc00
 c000982:	a904      	add	r1, sp, #16
 c000984:	2000      	movs	r0, #0
 c000986:	f2c0 0608 	movt	r6, #8
 c00098a:	4798      	blx	r3
 c00098c:	6833      	ldr	r3, [r6, #0]
 c00098e:	02bf      	lsls	r7, r7, #10
 c000990:	423b      	tst	r3, r7
 c000992:	d0b0      	beq.n	c0008f6 <CmdRTC+0x22>
 c000994:	4668      	mov	r0, sp
 c000996:	466b      	mov	r3, sp
 c000998:	466a      	mov	r2, sp
 c00099a:	4669      	mov	r1, sp
 c00099c:	7b40      	ldrb	r0, [r0, #13]
 c00099e:	7adb      	ldrb	r3, [r3, #11]
 c0009a0:	7a92      	ldrb	r2, [r2, #10]
 c0009a2:	8909      	ldrh	r1, [r1, #8]
 c0009a4:	9001      	str	r0, [sp, #4]
 c0009a6:	4668      	mov	r0, sp
 c0009a8:	7b00      	ldrb	r0, [r0, #12]
 c0009aa:	9000      	str	r0, [sp, #0]
 c0009ac:	f244 2004 	movw	r0, #16900	; 0x4204
 c0009b0:	f6c0 4001 	movt	r0, #3073	; 0xc01
 c0009b4:	f013 fb7c 	bl	c0140b0 <__DiagPrintf_veneer>
 c0009b8:	6833      	ldr	r3, [r6, #0]
 c0009ba:	423b      	tst	r3, r7
 c0009bc:	d09b      	beq.n	c0008f6 <CmdRTC+0x22>
 c0009be:	4668      	mov	r0, sp
 c0009c0:	466b      	mov	r3, sp
 c0009c2:	466a      	mov	r2, sp
 c0009c4:	4669      	mov	r1, sp
 c0009c6:	7d40      	ldrb	r0, [r0, #21]
 c0009c8:	7cdb      	ldrb	r3, [r3, #19]
 c0009ca:	7c92      	ldrb	r2, [r2, #18]
 c0009cc:	8a09      	ldrh	r1, [r1, #16]
 c0009ce:	9001      	str	r0, [sp, #4]
 c0009d0:	4668      	mov	r0, sp
 c0009d2:	7d00      	ldrb	r0, [r0, #20]
 c0009d4:	9000      	str	r0, [sp, #0]
 c0009d6:	f244 2020 	movw	r0, #16928	; 0x4220
 c0009da:	f6c0 4001 	movt	r0, #3073	; 0xc01
 c0009de:	f013 fb67 	bl	c0140b0 <__DiagPrintf_veneer>
 c0009e2:	e788      	b.n	c0008f6 <CmdRTC+0x22>
 c0009e4:	2301      	movs	r3, #1
 c0009e6:	7173      	strb	r3, [r6, #5]
 c0009e8:	e7b6      	b.n	c000958 <CmdRTC+0x84>
 c0009ea:	bf00      	nop

0c0009ec <CmdRamHelp>:
 c0009ec:	b570      	push	{r4, r5, r6, lr}
 c0009ee:	f646 2624 	movw	r6, #27172	; 0x6a24
 c0009f2:	f646 1464 	movw	r4, #26980	; 0x6964
 c0009f6:	f244 2044 	movw	r0, #16964	; 0x4244
 c0009fa:	f6c0 4601 	movt	r6, #3073	; 0xc01
 c0009fe:	f6c0 4401 	movt	r4, #3073	; 0xc01
 c000a02:	1b36      	subs	r6, r6, r4
 c000a04:	0936      	lsrs	r6, r6, #4
 c000a06:	0031      	movs	r1, r6
 c000a08:	f6c0 4001 	movt	r0, #3073	; 0xc01
 c000a0c:	f013 f9b0 	bl	c013d70 <__DiagPrintfD_veneer>
 c000a10:	b16e      	cbz	r6, c000a2e <CmdRamHelp+0x42>
 c000a12:	46a4      	mov	ip, r4
 c000a14:	0135      	lsls	r5, r6, #4
 c000a16:	4465      	add	r5, ip
 c000a18:	68e1      	ldr	r1, [r4, #12]
 c000a1a:	b129      	cbz	r1, c000a28 <CmdRamHelp+0x3c>
 c000a1c:	f244 20c4 	movw	r0, #17092	; 0x42c4
 c000a20:	f6c0 4001 	movt	r0, #3073	; 0xc01
 c000a24:	f013 f9a4 	bl	c013d70 <__DiagPrintfD_veneer>
 c000a28:	3410      	adds	r4, #16
 c000a2a:	42ac      	cmp	r4, r5
 c000a2c:	d1f4      	bne.n	c000a18 <CmdRamHelp+0x2c>
 c000a2e:	f244 2084 	movw	r0, #17028	; 0x4284
 c000a32:	0031      	movs	r1, r6
 c000a34:	f6c0 4001 	movt	r0, #3073	; 0xc01
 c000a38:	f013 f99a 	bl	c013d70 <__DiagPrintfD_veneer>
 c000a3c:	2001      	movs	r0, #1
 c000a3e:	bd70      	pop	{r4, r5, r6, pc}

0c000a40 <CmdShellSwitch>:
 c000a40:	b510      	push	{r4, lr}
 c000a42:	2008      	movs	r0, #8
 c000a44:	f003 fbb0 	bl	c0041a8 <km4_set_wake_event>
 c000a48:	2003      	movs	r0, #3
 c000a4a:	f004 feb1 	bl	c0057b0 <vTaskDelay>
 c000a4e:	f003 fb31 	bl	c0040b4 <km4_status_on>
 c000a52:	b148      	cbz	r0, c000a68 <CmdShellSwitch+0x28>
 c000a54:	f245 5375 	movw	r3, #21877	; 0x5575
 c000a58:	2003      	movs	r0, #3
 c000a5a:	f2c0 0300 	movt	r3, #0
 c000a5e:	4798      	blx	r3
 c000a60:	2100      	movs	r1, #0
 c000a62:	2000      	movs	r0, #0
 c000a64:	f001 fdbe 	bl	c0025e4 <ipc_send_message>
 c000a68:	2000      	movs	r0, #0
 c000a6a:	bd10      	pop	{r4, pc}

0c000a6c <CmdCTC>:
 c000a6c:	b570      	push	{r4, r5, r6, lr}
 c000a6e:	000d      	movs	r5, r1
 c000a70:	f646 54e9 	movw	r4, #28137	; 0x6de9
 c000a74:	f244 11e4 	movw	r1, #16868	; 0x41e4
 c000a78:	6828      	ldr	r0, [r5, #0]
 c000a7a:	f6c0 4101 	movt	r1, #3073	; 0xc01
 c000a7e:	f2c0 0400 	movt	r4, #0
 c000a82:	47a0      	blx	r4
 c000a84:	b1b0      	cbz	r0, c000ab4 <CmdCTC+0x48>
 c000a86:	f244 11ec 	movw	r1, #16876	; 0x41ec
 c000a8a:	6828      	ldr	r0, [r5, #0]
 c000a8c:	f6c0 4101 	movt	r1, #3073	; 0xc01
 c000a90:	47a0      	blx	r4
 c000a92:	b968      	cbnz	r0, c000ab0 <CmdCTC+0x44>
 c000a94:	f24c 0000 	movw	r0, #49152	; 0xc000
 c000a98:	2100      	movs	r1, #0
 c000a9a:	f6c4 0001 	movt	r0, #18433	; 0x4801
 c000a9e:	f001 fae3 	bl	c002068 <CapTouch_DbgDumpETC>
 c000aa2:	f24c 0000 	movw	r0, #49152	; 0xc000
 c000aa6:	2101      	movs	r1, #1
 c000aa8:	f6c4 0001 	movt	r0, #18433	; 0x4801
 c000aac:	f001 fadc 	bl	c002068 <CapTouch_DbgDumpETC>
 c000ab0:	2001      	movs	r0, #1
 c000ab2:	bd70      	pop	{r4, r5, r6, pc}
 c000ab4:	f24c 0000 	movw	r0, #49152	; 0xc000
 c000ab8:	f6c4 0001 	movt	r0, #18433	; 0x4801
 c000abc:	f001 f9b8 	bl	c001e30 <CapTouch_DbgDumpReg>
 c000ac0:	e7e1      	b.n	c000a86 <CmdCTC+0x1a>
 c000ac2:	bf00      	nop

0c000ac4 <cmd_efuse_extpath_write>:
 c000ac4:	b5f0      	push	{r4, r5, r6, r7, lr}
 c000ac6:	464e      	mov	r6, r9
 c000ac8:	4645      	mov	r5, r8
 c000aca:	46de      	mov	lr, fp
 c000acc:	4657      	mov	r7, sl
 c000ace:	230f      	movs	r3, #15
 c000ad0:	b5e0      	push	{r5, r6, r7, lr}
 c000ad2:	f241 569d 	movw	r6, #5533	; 0x159d
 c000ad6:	468b      	mov	fp, r1
 c000ad8:	2400      	movs	r4, #0
 c000ada:	f240 080f 	movw	r8, #15
 c000ade:	2701      	movs	r7, #1
 c000ae0:	f240 191d 	movw	r9, #285	; 0x11d
 c000ae4:	0140      	lsls	r0, r0, #5
 c000ae6:	4318      	orrs	r0, r3
 c000ae8:	b085      	sub	sp, #20
 c000aea:	b2c3      	uxtb	r3, r0
 c000aec:	9300      	str	r3, [sp, #0]
 c000aee:	ab02      	add	r3, sp, #8
 c000af0:	9201      	str	r2, [sp, #4]
 c000af2:	1ddd      	adds	r5, r3, #7
 c000af4:	f2c0 0600 	movt	r6, #0
 c000af8:	2307      	movs	r3, #7
 c000afa:	002a      	movs	r2, r5
 c000afc:	0021      	movs	r1, r4
 c000afe:	2000      	movs	r0, #0
 c000b00:	47b0      	blx	r6
 c000b02:	782b      	ldrb	r3, [r5, #0]
 c000b04:	2bff      	cmp	r3, #255	; 0xff
 c000b06:	d010      	beq.n	c000b2a <cmd_efuse_extpath_write+0x66>
 c000b08:	4642      	mov	r2, r8
 c000b0a:	401a      	ands	r2, r3
 c000b0c:	2a0f      	cmp	r2, #15
 c000b0e:	d05a      	beq.n	c000bc6 <cmd_efuse_extpath_write+0x102>
 c000b10:	4642      	mov	r2, r8
 c000b12:	439a      	bics	r2, r3
 c000b14:	0013      	movs	r3, r2
 c000b16:	b12a      	cbz	r2, c000b24 <cmd_efuse_extpath_write+0x60>
 c000b18:	421f      	tst	r7, r3
 c000b1a:	d000      	beq.n	c000b1e <cmd_efuse_extpath_write+0x5a>
 c000b1c:	3402      	adds	r4, #2
 c000b1e:	085b      	lsrs	r3, r3, #1
 c000b20:	2b00      	cmp	r3, #0
 c000b22:	d1f9      	bne.n	c000b18 <cmd_efuse_extpath_write+0x54>
 c000b24:	3401      	adds	r4, #1
 c000b26:	454c      	cmp	r4, r9
 c000b28:	d9e6      	bls.n	c000af8 <cmd_efuse_extpath_write+0x34>
 c000b2a:	f240 19cc 	movw	r9, #460	; 0x1cc
 c000b2e:	f2c0 0908 	movt	r9, #8
 c000b32:	464b      	mov	r3, r9
 c000b34:	681b      	ldr	r3, [r3, #0]
 c000b36:	039b      	lsls	r3, r3, #14
 c000b38:	d500      	bpl.n	c000b3c <cmd_efuse_extpath_write+0x78>
 c000b3a:	e086      	b.n	c000c4a <cmd_efuse_extpath_write+0x186>
 c000b3c:	2310      	movs	r3, #16
 c000b3e:	f6c4 0300 	movt	r3, #18432	; 0x4800
 c000b42:	681b      	ldr	r3, [r3, #0]
 c000b44:	015b      	lsls	r3, r3, #5
 c000b46:	d508      	bpl.n	c000b5a <cmd_efuse_extpath_write+0x96>
 c000b48:	f241 6561 	movw	r5, #5729	; 0x1661
 c000b4c:	2307      	movs	r3, #7
 c000b4e:	9a00      	ldr	r2, [sp, #0]
 c000b50:	0021      	movs	r1, r4
 c000b52:	2000      	movs	r0, #0
 c000b54:	f2c0 0500 	movt	r5, #0
 c000b58:	47a8      	blx	r5
 c000b5a:	2310      	movs	r3, #16
 c000b5c:	2280      	movs	r2, #128	; 0x80
 c000b5e:	f6c4 0300 	movt	r3, #18432	; 0x4800
 c000b62:	6819      	ldr	r1, [r3, #0]
 c000b64:	04d2      	lsls	r2, r2, #19
 c000b66:	4211      	tst	r1, r2
 c000b68:	d044      	beq.n	c000bf4 <cmd_efuse_extpath_write+0x130>
 c000b6a:	f241 6561 	movw	r5, #5729	; 0x1661
 c000b6e:	1c61      	adds	r1, r4, #1
 c000b70:	2307      	movs	r3, #7
 c000b72:	22ee      	movs	r2, #238	; 0xee
 c000b74:	2000      	movs	r0, #0
 c000b76:	f2c0 0500 	movt	r5, #0
 c000b7a:	47a8      	blx	r5
 c000b7c:	2310      	movs	r3, #16
 c000b7e:	f6c4 0300 	movt	r3, #18432	; 0x4800
 c000b82:	681b      	ldr	r3, [r3, #0]
 c000b84:	015b      	lsls	r3, r3, #5
 c000b86:	d54e      	bpl.n	c000c26 <cmd_efuse_extpath_write+0x162>
 c000b88:	f241 6561 	movw	r5, #5729	; 0x1661
 c000b8c:	1ca1      	adds	r1, r4, #2
 c000b8e:	2307      	movs	r3, #7
 c000b90:	465a      	mov	r2, fp
 c000b92:	2000      	movs	r0, #0
 c000b94:	f2c0 0500 	movt	r5, #0
 c000b98:	47a8      	blx	r5
 c000b9a:	2310      	movs	r3, #16
 c000b9c:	f6c4 0300 	movt	r3, #18432	; 0x4800
 c000ba0:	681b      	ldr	r3, [r3, #0]
 c000ba2:	015b      	lsls	r3, r3, #5
 c000ba4:	d534      	bpl.n	c000c10 <cmd_efuse_extpath_write+0x14c>
 c000ba6:	1ce1      	adds	r1, r4, #3
 c000ba8:	f241 6461 	movw	r4, #5729	; 0x1661
 c000bac:	2307      	movs	r3, #7
 c000bae:	9a01      	ldr	r2, [sp, #4]
 c000bb0:	2000      	movs	r0, #0
 c000bb2:	f2c0 0400 	movt	r4, #0
 c000bb6:	47a0      	blx	r4
 c000bb8:	b005      	add	sp, #20
 c000bba:	bc3c      	pop	{r2, r3, r4, r5}
 c000bbc:	4690      	mov	r8, r2
 c000bbe:	4699      	mov	r9, r3
 c000bc0:	46a2      	mov	sl, r4
 c000bc2:	46ab      	mov	fp, r5
 c000bc4:	bdf0      	pop	{r4, r5, r6, r7, pc}
 c000bc6:	3401      	adds	r4, #1
 c000bc8:	2307      	movs	r3, #7
 c000bca:	002a      	movs	r2, r5
 c000bcc:	0021      	movs	r1, r4
 c000bce:	2000      	movs	r0, #0
 c000bd0:	47b0      	blx	r6
 c000bd2:	4642      	mov	r2, r8
 c000bd4:	782b      	ldrb	r3, [r5, #0]
 c000bd6:	439a      	bics	r2, r3
 c000bd8:	0013      	movs	r3, r2
 c000bda:	2a00      	cmp	r2, #0
 c000bdc:	d0a2      	beq.n	c000b24 <cmd_efuse_extpath_write+0x60>
 c000bde:	421f      	tst	r7, r3
 c000be0:	d000      	beq.n	c000be4 <cmd_efuse_extpath_write+0x120>
 c000be2:	3402      	adds	r4, #2
 c000be4:	085b      	lsrs	r3, r3, #1
 c000be6:	2b00      	cmp	r3, #0
 c000be8:	d1f9      	bne.n	c000bde <cmd_efuse_extpath_write+0x11a>
 c000bea:	3401      	adds	r4, #1
 c000bec:	454c      	cmp	r4, r9
 c000bee:	d800      	bhi.n	c000bf2 <cmd_efuse_extpath_write+0x12e>
 c000bf0:	e782      	b.n	c000af8 <cmd_efuse_extpath_write+0x34>
 c000bf2:	e79a      	b.n	c000b2a <cmd_efuse_extpath_write+0x66>
 c000bf4:	4649      	mov	r1, r9
 c000bf6:	6809      	ldr	r1, [r1, #0]
 c000bf8:	0389      	lsls	r1, r1, #14
 c000bfa:	d41f      	bmi.n	c000c3c <cmd_efuse_extpath_write+0x178>
 c000bfc:	681b      	ldr	r3, [r3, #0]
 c000bfe:	4213      	tst	r3, r2
 c000c00:	d1c2      	bne.n	c000b88 <cmd_efuse_extpath_write+0xc4>
 c000c02:	2310      	movs	r3, #16
 c000c04:	f6c4 0300 	movt	r3, #18432	; 0x4800
 c000c08:	681b      	ldr	r3, [r3, #0]
 c000c0a:	015b      	lsls	r3, r3, #5
 c000c0c:	d5d4      	bpl.n	c000bb8 <cmd_efuse_extpath_write+0xf4>
 c000c0e:	e7ca      	b.n	c000ba6 <cmd_efuse_extpath_write+0xe2>
 c000c10:	464b      	mov	r3, r9
 c000c12:	681b      	ldr	r3, [r3, #0]
 c000c14:	039b      	lsls	r3, r3, #14
 c000c16:	d5cf      	bpl.n	c000bb8 <cmd_efuse_extpath_write+0xf4>
 c000c18:	f244 3060 	movw	r0, #17248	; 0x4360
 c000c1c:	f6c0 4001 	movt	r0, #3073	; 0xc01
 c000c20:	f013 fa46 	bl	c0140b0 <__DiagPrintf_veneer>
 c000c24:	e7c8      	b.n	c000bb8 <cmd_efuse_extpath_write+0xf4>
 c000c26:	464b      	mov	r3, r9
 c000c28:	681b      	ldr	r3, [r3, #0]
 c000c2a:	039b      	lsls	r3, r3, #14
 c000c2c:	d5e9      	bpl.n	c000c02 <cmd_efuse_extpath_write+0x13e>
 c000c2e:	f244 3060 	movw	r0, #17248	; 0x4360
 c000c32:	f6c0 4001 	movt	r0, #3073	; 0xc01
 c000c36:	f013 fa3b 	bl	c0140b0 <__DiagPrintf_veneer>
 c000c3a:	e7ae      	b.n	c000b9a <cmd_efuse_extpath_write+0xd6>
 c000c3c:	f244 3060 	movw	r0, #17248	; 0x4360
 c000c40:	f6c0 4001 	movt	r0, #3073	; 0xc01
 c000c44:	f013 fa34 	bl	c0140b0 <__DiagPrintf_veneer>
 c000c48:	e798      	b.n	c000b7c <cmd_efuse_extpath_write+0xb8>
 c000c4a:	2700      	movs	r7, #0
 c000c4c:	f240 0a0f 	movw	sl, #15
 c000c50:	f240 0801 	movw	r8, #1
 c000c54:	2307      	movs	r3, #7
 c000c56:	002a      	movs	r2, r5
 c000c58:	0039      	movs	r1, r7
 c000c5a:	2000      	movs	r0, #0
 c000c5c:	47b0      	blx	r6
 c000c5e:	782b      	ldrb	r3, [r5, #0]
 c000c60:	2bff      	cmp	r3, #255	; 0xff
 c000c62:	d013      	beq.n	c000c8c <cmd_efuse_extpath_write+0x1c8>
 c000c64:	4652      	mov	r2, sl
 c000c66:	401a      	ands	r2, r3
 c000c68:	2a0f      	cmp	r2, #15
 c000c6a:	d05c      	beq.n	c000d26 <cmd_efuse_extpath_write+0x262>
 c000c6c:	4652      	mov	r2, sl
 c000c6e:	439a      	bics	r2, r3
 c000c70:	0013      	movs	r3, r2
 c000c72:	b132      	cbz	r2, c000c82 <cmd_efuse_extpath_write+0x1be>
 c000c74:	4642      	mov	r2, r8
 c000c76:	421a      	tst	r2, r3
 c000c78:	d000      	beq.n	c000c7c <cmd_efuse_extpath_write+0x1b8>
 c000c7a:	3702      	adds	r7, #2
 c000c7c:	085b      	lsrs	r3, r3, #1
 c000c7e:	2b00      	cmp	r3, #0
 c000c80:	d1f8      	bne.n	c000c74 <cmd_efuse_extpath_write+0x1b0>
 c000c82:	f240 131d 	movw	r3, #285	; 0x11d
 c000c86:	3701      	adds	r7, #1
 c000c88:	429f      	cmp	r7, r3
 c000c8a:	d9e3      	bls.n	c000c54 <cmd_efuse_extpath_write+0x190>
 c000c8c:	f240 121e 	movw	r2, #286	; 0x11e
 c000c90:	f244 3018 	movw	r0, #17176	; 0x4318
 c000c94:	1bd2      	subs	r2, r2, r7
 c000c96:	0021      	movs	r1, r4
 c000c98:	f6c0 4001 	movt	r0, #3073	; 0xc01
 c000c9c:	f013 fa08 	bl	c0140b0 <__DiagPrintf_veneer>
 c000ca0:	464b      	mov	r3, r9
 c000ca2:	2580      	movs	r5, #128	; 0x80
 c000ca4:	681b      	ldr	r3, [r3, #0]
 c000ca6:	02ad      	lsls	r5, r5, #10
 c000ca8:	422b      	tst	r3, r5
 c000caa:	d029      	beq.n	c000d00 <cmd_efuse_extpath_write+0x23c>
 c000cac:	f244 3040 	movw	r0, #17216	; 0x4340
 c000cb0:	9900      	ldr	r1, [sp, #0]
 c000cb2:	f6c0 4001 	movt	r0, #3073	; 0xc01
 c000cb6:	f013 f9fb 	bl	c0140b0 <__DiagPrintf_veneer>
 c000cba:	464b      	mov	r3, r9
 c000cbc:	681b      	ldr	r3, [r3, #0]
 c000cbe:	422b      	tst	r3, r5
 c000cc0:	d100      	bne.n	c000cc4 <cmd_efuse_extpath_write+0x200>
 c000cc2:	e73b      	b.n	c000b3c <cmd_efuse_extpath_write+0x78>
 c000cc4:	f244 3040 	movw	r0, #17216	; 0x4340
 c000cc8:	21ee      	movs	r1, #238	; 0xee
 c000cca:	f6c0 4001 	movt	r0, #3073	; 0xc01
 c000cce:	f013 f9ef 	bl	c0140b0 <__DiagPrintf_veneer>
 c000cd2:	464b      	mov	r3, r9
 c000cd4:	681b      	ldr	r3, [r3, #0]
 c000cd6:	422b      	tst	r3, r5
 c000cd8:	d012      	beq.n	c000d00 <cmd_efuse_extpath_write+0x23c>
 c000cda:	f244 3040 	movw	r0, #17216	; 0x4340
 c000cde:	4659      	mov	r1, fp
 c000ce0:	f6c0 4001 	movt	r0, #3073	; 0xc01
 c000ce4:	f013 f9e4 	bl	c0140b0 <__DiagPrintf_veneer>
 c000ce8:	464b      	mov	r3, r9
 c000cea:	681b      	ldr	r3, [r3, #0]
 c000cec:	422b      	tst	r3, r5
 c000cee:	d100      	bne.n	c000cf2 <cmd_efuse_extpath_write+0x22e>
 c000cf0:	e724      	b.n	c000b3c <cmd_efuse_extpath_write+0x78>
 c000cf2:	f244 3040 	movw	r0, #17216	; 0x4340
 c000cf6:	9901      	ldr	r1, [sp, #4]
 c000cf8:	f6c0 4001 	movt	r0, #3073	; 0xc01
 c000cfc:	f013 f9d8 	bl	c0140b0 <__DiagPrintf_veneer>
 c000d00:	2310      	movs	r3, #16
 c000d02:	f6c4 0300 	movt	r3, #18432	; 0x4800
 c000d06:	681b      	ldr	r3, [r3, #0]
 c000d08:	015b      	lsls	r3, r3, #5
 c000d0a:	d500      	bpl.n	c000d0e <cmd_efuse_extpath_write+0x24a>
 c000d0c:	e71c      	b.n	c000b48 <cmd_efuse_extpath_write+0x84>
 c000d0e:	464b      	mov	r3, r9
 c000d10:	681b      	ldr	r3, [r3, #0]
 c000d12:	039b      	lsls	r3, r3, #14
 c000d14:	d400      	bmi.n	c000d18 <cmd_efuse_extpath_write+0x254>
 c000d16:	e720      	b.n	c000b5a <cmd_efuse_extpath_write+0x96>
 c000d18:	f244 3060 	movw	r0, #17248	; 0x4360
 c000d1c:	f6c0 4001 	movt	r0, #3073	; 0xc01
 c000d20:	f013 f9c6 	bl	c0140b0 <__DiagPrintf_veneer>
 c000d24:	e719      	b.n	c000b5a <cmd_efuse_extpath_write+0x96>
 c000d26:	3701      	adds	r7, #1
 c000d28:	2307      	movs	r3, #7
 c000d2a:	002a      	movs	r2, r5
 c000d2c:	0039      	movs	r1, r7
 c000d2e:	2000      	movs	r0, #0
 c000d30:	47b0      	blx	r6
 c000d32:	4652      	mov	r2, sl
 c000d34:	782b      	ldrb	r3, [r5, #0]
 c000d36:	439a      	bics	r2, r3
 c000d38:	0013      	movs	r3, r2
 c000d3a:	2a00      	cmp	r2, #0
 c000d3c:	d0a1      	beq.n	c000c82 <cmd_efuse_extpath_write+0x1be>
 c000d3e:	4642      	mov	r2, r8
 c000d40:	421a      	tst	r2, r3
 c000d42:	d000      	beq.n	c000d46 <cmd_efuse_extpath_write+0x282>
 c000d44:	3702      	adds	r7, #2
 c000d46:	085b      	lsrs	r3, r3, #1
 c000d48:	2b00      	cmp	r3, #0
 c000d4a:	d1f8      	bne.n	c000d3e <cmd_efuse_extpath_write+0x27a>
 c000d4c:	f240 131d 	movw	r3, #285	; 0x11d
 c000d50:	3701      	adds	r7, #1
 c000d52:	429f      	cmp	r7, r3
 c000d54:	d800      	bhi.n	c000d58 <cmd_efuse_extpath_write+0x294>
 c000d56:	e77d      	b.n	c000c54 <cmd_efuse_extpath_write+0x190>
 c000d58:	e798      	b.n	c000c8c <cmd_efuse_extpath_write+0x1c8>
 c000d5a:	bf00      	nop

0c000d5c <cmd_efuse_protect>:
 c000d5c:	b5f0      	push	{r4, r5, r6, r7, lr}
 c000d5e:	4657      	mov	r7, sl
 c000d60:	468a      	mov	sl, r1
 c000d62:	46de      	mov	lr, fp
 c000d64:	464e      	mov	r6, r9
 c000d66:	4645      	mov	r5, r8
 c000d68:	f244 318c 	movw	r1, #17292	; 0x438c
 c000d6c:	4653      	mov	r3, sl
 c000d6e:	f646 5be9 	movw	fp, #28137	; 0x6de9
 c000d72:	b5e0      	push	{r5, r6, r7, lr}
 c000d74:	4cc1      	ldr	r4, [pc, #772]	; (c00107c <cmd_efuse_protect+0x320>)
 c000d76:	f6c0 4101 	movt	r1, #3073	; 0xc01
 c000d7a:	44a5      	add	sp, r4
 c000d7c:	6818      	ldr	r0, [r3, #0]
 c000d7e:	f2c0 0b00 	movt	fp, #0
 c000d82:	47d8      	blx	fp
 c000d84:	2800      	cmp	r0, #0
 c000d86:	d168      	bne.n	c000e5a <cmd_efuse_protect+0xfe>
 c000d88:	4653      	mov	r3, sl
 c000d8a:	f647 14d9 	movw	r4, #31193	; 0x79d9
 c000d8e:	2210      	movs	r2, #16
 c000d90:	f2c0 0400 	movt	r4, #0
 c000d94:	2100      	movs	r1, #0
 c000d96:	6858      	ldr	r0, [r3, #4]
 c000d98:	47a0      	blx	r4
 c000d9a:	4653      	mov	r3, sl
 c000d9c:	900e      	str	r0, [sp, #56]	; 0x38
 c000d9e:	2210      	movs	r2, #16
 c000da0:	2100      	movs	r1, #0
 c000da2:	6898      	ldr	r0, [r3, #8]
 c000da4:	47a0      	blx	r4
 c000da6:	4653      	mov	r3, sl
 c000da8:	68dc      	ldr	r4, [r3, #12]
 c000daa:	f646 63c5 	movw	r3, #28357	; 0x6ec5
 c000dae:	4681      	mov	r9, r0
 c000db0:	f2c0 0300 	movt	r3, #0
 c000db4:	0020      	movs	r0, r4
 c000db6:	4798      	blx	r3
 c000db8:	0005      	movs	r5, r0
 c000dba:	07c3      	lsls	r3, r0, #31
 c000dbc:	d511      	bpl.n	c000de2 <cmd_efuse_protect+0x86>
 c000dbe:	f240 13cc 	movw	r3, #460	; 0x1cc
 c000dc2:	f2c0 0308 	movt	r3, #8
 c000dc6:	681b      	ldr	r3, [r3, #0]
 c000dc8:	03db      	lsls	r3, r3, #15
 c000dca:	d500      	bpl.n	c000dce <cmd_efuse_protect+0x72>
 c000dcc:	e1c1      	b.n	c001152 <cmd_efuse_protect+0x3f6>
 c000dce:	2000      	movs	r0, #0
 c000dd0:	f240 4344 	movw	r3, #1092	; 0x444
 c000dd4:	449d      	add	sp, r3
 c000dd6:	bc3c      	pop	{r2, r3, r4, r5}
 c000dd8:	4690      	mov	r8, r2
 c000dda:	4699      	mov	r9, r3
 c000ddc:	46a2      	mov	sl, r4
 c000dde:	46ab      	mov	fp, r5
 c000de0:	bdf0      	pop	{r4, r5, r6, r7, pc}
 c000de2:	f240 16cc 	movw	r6, #460	; 0x1cc
 c000de6:	2380      	movs	r3, #128	; 0x80
 c000de8:	0847      	lsrs	r7, r0, #1
 c000dea:	f2c0 0608 	movt	r6, #8
 c000dee:	025b      	lsls	r3, r3, #9
 c000df0:	45b9      	cmp	r9, r7
 c000df2:	d100      	bne.n	c000df6 <cmd_efuse_protect+0x9a>
 c000df4:	e193      	b.n	c00111e <cmd_efuse_protect+0x3c2>
 c000df6:	4698      	mov	r8, r3
 c000df8:	4642      	mov	r2, r8
 c000dfa:	6833      	ldr	r3, [r6, #0]
 c000dfc:	4013      	ands	r3, r2
 c000dfe:	2b00      	cmp	r3, #0
 c000e00:	d000      	beq.n	c000e04 <cmd_efuse_protect+0xa8>
 c000e02:	e1c7      	b.n	c001194 <cmd_efuse_protect+0x438>
 c000e04:	45b9      	cmp	r9, r7
 c000e06:	d900      	bls.n	c000e0a <cmd_efuse_protect+0xae>
 c000e08:	46b9      	mov	r9, r7
 c000e0a:	2b00      	cmp	r3, #0
 c000e0c:	d000      	beq.n	c000e10 <cmd_efuse_protect+0xb4>
 c000e0e:	e1b6      	b.n	c00117e <cmd_efuse_protect+0x422>
 c000e10:	464b      	mov	r3, r9
 c000e12:	b19b      	cbz	r3, c000e3c <cmd_efuse_protect+0xe0>
 c000e14:	f246 475d 	movw	r7, #25693	; 0x645d
 c000e18:	ad10      	add	r5, sp, #64	; 0x40
 c000e1a:	f2c0 0700 	movt	r7, #0
 c000e1e:	46a8      	mov	r8, r5
 c000e20:	003b      	movs	r3, r7
 c000e22:	44c8      	add	r8, r9
 c000e24:	4647      	mov	r7, r8
 c000e26:	46b0      	mov	r8, r6
 c000e28:	001e      	movs	r6, r3
 c000e2a:	7861      	ldrb	r1, [r4, #1]
 c000e2c:	7820      	ldrb	r0, [r4, #0]
 c000e2e:	47b0      	blx	r6
 c000e30:	7028      	strb	r0, [r5, #0]
 c000e32:	3501      	adds	r5, #1
 c000e34:	3402      	adds	r4, #2
 c000e36:	42bd      	cmp	r5, r7
 c000e38:	d1f7      	bne.n	c000e2a <cmd_efuse_protect+0xce>
 c000e3a:	4646      	mov	r6, r8
 c000e3c:	2310      	movs	r3, #16
 c000e3e:	f6c4 0300 	movt	r3, #18432	; 0x4800
 c000e42:	681b      	ldr	r3, [r3, #0]
 c000e44:	015b      	lsls	r3, r3, #5
 c000e46:	d400      	bmi.n	c000e4a <cmd_efuse_protect+0xee>
 c000e48:	e178      	b.n	c00113c <cmd_efuse_protect+0x3e0>
 c000e4a:	f641 2371 	movw	r3, #6769	; 0x1a71
 c000e4e:	aa10      	add	r2, sp, #64	; 0x40
 c000e50:	4649      	mov	r1, r9
 c000e52:	980e      	ldr	r0, [sp, #56]	; 0x38
 c000e54:	f2c0 0300 	movt	r3, #0
 c000e58:	4798      	blx	r3
 c000e5a:	f244 4124 	movw	r1, #17444	; 0x4424
 c000e5e:	4653      	mov	r3, sl
 c000e60:	f6c0 4101 	movt	r1, #3073	; 0xc01
 c000e64:	6818      	ldr	r0, [r3, #0]
 c000e66:	47d8      	blx	fp
 c000e68:	2800      	cmp	r0, #0
 c000e6a:	d14b      	bne.n	c000f04 <cmd_efuse_protect+0x1a8>
 c000e6c:	f240 16cc 	movw	r6, #460	; 0x1cc
 c000e70:	f2c0 0608 	movt	r6, #8
 c000e74:	6833      	ldr	r3, [r6, #0]
 c000e76:	03db      	lsls	r3, r3, #15
 c000e78:	d500      	bpl.n	c000e7c <cmd_efuse_protect+0x120>
 c000e7a:	e179      	b.n	c001170 <cmd_efuse_protect+0x414>
 c000e7c:	f641 1365 	movw	r3, #6501	; 0x1965
 c000e80:	a810      	add	r0, sp, #64	; 0x40
 c000e82:	f2c0 0300 	movt	r3, #0
 c000e86:	4798      	blx	r3
 c000e88:	b2c0      	uxtb	r0, r0
 c000e8a:	6833      	ldr	r3, [r6, #0]
 c000e8c:	2800      	cmp	r0, #0
 c000e8e:	d100      	bne.n	c000e92 <cmd_efuse_protect+0x136>
 c000e90:	e12a      	b.n	c0010e8 <cmd_efuse_protect+0x38c>
 c000e92:	2280      	movs	r2, #128	; 0x80
 c000e94:	0252      	lsls	r2, r2, #9
 c000e96:	ac10      	add	r4, sp, #64	; 0x40
 c000e98:	2500      	movs	r5, #0
 c000e9a:	4690      	mov	r8, r2
 c000e9c:	f240 4700 	movw	r7, #1024	; 0x400
 c000ea0:	e004      	b.n	c000eac <cmd_efuse_protect+0x150>
 c000ea2:	3510      	adds	r5, #16
 c000ea4:	3410      	adds	r4, #16
 c000ea6:	42bd      	cmp	r5, r7
 c000ea8:	d02c      	beq.n	c000f04 <cmd_efuse_protect+0x1a8>
 c000eaa:	6833      	ldr	r3, [r6, #0]
 c000eac:	4642      	mov	r2, r8
 c000eae:	4213      	tst	r3, r2
 c000eb0:	d0f7      	beq.n	c000ea2 <cmd_efuse_protect+0x146>
 c000eb2:	7be1      	ldrb	r1, [r4, #15]
 c000eb4:	7863      	ldrb	r3, [r4, #1]
 c000eb6:	7822      	ldrb	r2, [r4, #0]
 c000eb8:	910d      	str	r1, [sp, #52]	; 0x34
 c000eba:	7ba1      	ldrb	r1, [r4, #14]
 c000ebc:	f244 4064 	movw	r0, #17508	; 0x4464
 c000ec0:	910c      	str	r1, [sp, #48]	; 0x30
 c000ec2:	7b61      	ldrb	r1, [r4, #13]
 c000ec4:	f6c0 4001 	movt	r0, #3073	; 0xc01
 c000ec8:	910b      	str	r1, [sp, #44]	; 0x2c
 c000eca:	7b21      	ldrb	r1, [r4, #12]
 c000ecc:	910a      	str	r1, [sp, #40]	; 0x28
 c000ece:	7ae1      	ldrb	r1, [r4, #11]
 c000ed0:	9109      	str	r1, [sp, #36]	; 0x24
 c000ed2:	7aa1      	ldrb	r1, [r4, #10]
 c000ed4:	9108      	str	r1, [sp, #32]
 c000ed6:	7a61      	ldrb	r1, [r4, #9]
 c000ed8:	9107      	str	r1, [sp, #28]
 c000eda:	7a21      	ldrb	r1, [r4, #8]
 c000edc:	9106      	str	r1, [sp, #24]
 c000ede:	79e1      	ldrb	r1, [r4, #7]
 c000ee0:	9105      	str	r1, [sp, #20]
 c000ee2:	79a1      	ldrb	r1, [r4, #6]
 c000ee4:	9104      	str	r1, [sp, #16]
 c000ee6:	7961      	ldrb	r1, [r4, #5]
 c000ee8:	9103      	str	r1, [sp, #12]
 c000eea:	7921      	ldrb	r1, [r4, #4]
 c000eec:	9102      	str	r1, [sp, #8]
 c000eee:	78e1      	ldrb	r1, [r4, #3]
 c000ef0:	9101      	str	r1, [sp, #4]
 c000ef2:	78a1      	ldrb	r1, [r4, #2]
 c000ef4:	3410      	adds	r4, #16
 c000ef6:	9100      	str	r1, [sp, #0]
 c000ef8:	0029      	movs	r1, r5
 c000efa:	3510      	adds	r5, #16
 c000efc:	f013 f8d8 	bl	c0140b0 <__DiagPrintf_veneer>
 c000f00:	42bd      	cmp	r5, r7
 c000f02:	d1d2      	bne.n	c000eaa <cmd_efuse_protect+0x14e>
 c000f04:	f244 412c 	movw	r1, #17452	; 0x442c
 c000f08:	4653      	mov	r3, sl
 c000f0a:	f6c0 4101 	movt	r1, #3073	; 0xc01
 c000f0e:	6818      	ldr	r0, [r3, #0]
 c000f10:	47d8      	blx	fp
 c000f12:	2800      	cmp	r0, #0
 c000f14:	d159      	bne.n	c000fca <cmd_efuse_protect+0x26e>
 c000f16:	f240 16cc 	movw	r6, #460	; 0x1cc
 c000f1a:	f2c0 0608 	movt	r6, #8
 c000f1e:	6833      	ldr	r3, [r6, #0]
 c000f20:	03db      	lsls	r3, r3, #15
 c000f22:	d500      	bpl.n	c000f26 <cmd_efuse_protect+0x1ca>
 c000f24:	e11d      	b.n	c001162 <cmd_efuse_protect+0x406>
 c000f26:	f241 539d 	movw	r3, #5533	; 0x159d
 c000f2a:	af10      	add	r7, sp, #64	; 0x40
 c000f2c:	003d      	movs	r5, r7
 c000f2e:	2400      	movs	r4, #0
 c000f30:	f240 09ff 	movw	r9, #255	; 0xff
 c000f34:	f240 2800 	movw	r8, #512	; 0x200
 c000f38:	f2c0 0300 	movt	r3, #0
 c000f3c:	930f      	str	r3, [sp, #60]	; 0x3c
 c000f3e:	960e      	str	r6, [sp, #56]	; 0x38
 c000f40:	0023      	movs	r3, r4
 c000f42:	3b51      	subs	r3, #81	; 0x51
 c000f44:	3bff      	subs	r3, #255	; 0xff
 c000f46:	2b2f      	cmp	r3, #47	; 0x2f
 c000f48:	d900      	bls.n	c000f4c <cmd_efuse_protect+0x1f0>
 c000f4a:	e146      	b.n	c0011da <cmd_efuse_protect+0x47e>
 c000f4c:	464b      	mov	r3, r9
 c000f4e:	702b      	strb	r3, [r5, #0]
 c000f50:	3401      	adds	r4, #1
 c000f52:	3501      	adds	r5, #1
 c000f54:	4544      	cmp	r4, r8
 c000f56:	d1f3      	bne.n	c000f40 <cmd_efuse_protect+0x1e4>
 c000f58:	2380      	movs	r3, #128	; 0x80
 c000f5a:	025b      	lsls	r3, r3, #9
 c000f5c:	9e0e      	ldr	r6, [sp, #56]	; 0x38
 c000f5e:	2400      	movs	r4, #0
 c000f60:	4698      	mov	r8, r3
 c000f62:	f240 2500 	movw	r5, #512	; 0x200
 c000f66:	e003      	b.n	c000f70 <cmd_efuse_protect+0x214>
 c000f68:	3410      	adds	r4, #16
 c000f6a:	3710      	adds	r7, #16
 c000f6c:	42ac      	cmp	r4, r5
 c000f6e:	d02c      	beq.n	c000fca <cmd_efuse_protect+0x26e>
 c000f70:	4642      	mov	r2, r8
 c000f72:	6833      	ldr	r3, [r6, #0]
 c000f74:	4213      	tst	r3, r2
 c000f76:	d0f7      	beq.n	c000f68 <cmd_efuse_protect+0x20c>
 c000f78:	7bf9      	ldrb	r1, [r7, #15]
 c000f7a:	787b      	ldrb	r3, [r7, #1]
 c000f7c:	783a      	ldrb	r2, [r7, #0]
 c000f7e:	910d      	str	r1, [sp, #52]	; 0x34
 c000f80:	7bb9      	ldrb	r1, [r7, #14]
 c000f82:	f244 40d8 	movw	r0, #17624	; 0x44d8
 c000f86:	910c      	str	r1, [sp, #48]	; 0x30
 c000f88:	7b79      	ldrb	r1, [r7, #13]
 c000f8a:	f6c0 4001 	movt	r0, #3073	; 0xc01
 c000f8e:	910b      	str	r1, [sp, #44]	; 0x2c
 c000f90:	7b39      	ldrb	r1, [r7, #12]
 c000f92:	910a      	str	r1, [sp, #40]	; 0x28
 c000f94:	7af9      	ldrb	r1, [r7, #11]
 c000f96:	9109      	str	r1, [sp, #36]	; 0x24
 c000f98:	7ab9      	ldrb	r1, [r7, #10]
 c000f9a:	9108      	str	r1, [sp, #32]
 c000f9c:	7a79      	ldrb	r1, [r7, #9]
 c000f9e:	9107      	str	r1, [sp, #28]
 c000fa0:	7a39      	ldrb	r1, [r7, #8]
 c000fa2:	9106      	str	r1, [sp, #24]
 c000fa4:	79f9      	ldrb	r1, [r7, #7]
 c000fa6:	9105      	str	r1, [sp, #20]
 c000fa8:	79b9      	ldrb	r1, [r7, #6]
 c000faa:	9104      	str	r1, [sp, #16]
 c000fac:	7979      	ldrb	r1, [r7, #5]
 c000fae:	9103      	str	r1, [sp, #12]
 c000fb0:	7939      	ldrb	r1, [r7, #4]
 c000fb2:	9102      	str	r1, [sp, #8]
 c000fb4:	78f9      	ldrb	r1, [r7, #3]
 c000fb6:	9101      	str	r1, [sp, #4]
 c000fb8:	78b9      	ldrb	r1, [r7, #2]
 c000fba:	3710      	adds	r7, #16
 c000fbc:	9100      	str	r1, [sp, #0]
 c000fbe:	0021      	movs	r1, r4
 c000fc0:	3410      	adds	r4, #16
 c000fc2:	f013 f875 	bl	c0140b0 <__DiagPrintf_veneer>
 c000fc6:	42ac      	cmp	r4, r5
 c000fc8:	d1d2      	bne.n	c000f70 <cmd_efuse_protect+0x214>
 c000fca:	f244 41c4 	movw	r1, #17604	; 0x44c4
 c000fce:	4653      	mov	r3, sl
 c000fd0:	f6c0 4101 	movt	r1, #3073	; 0xc01
 c000fd4:	6818      	ldr	r0, [r3, #0]
 c000fd6:	47d8      	blx	fp
 c000fd8:	2800      	cmp	r0, #0
 c000fda:	d175      	bne.n	c0010c8 <cmd_efuse_protect+0x36c>
 c000fdc:	4653      	mov	r3, sl
 c000fde:	f647 14d9 	movw	r4, #31193	; 0x79d9
 c000fe2:	2210      	movs	r2, #16
 c000fe4:	f2c0 0400 	movt	r4, #0
 c000fe8:	2100      	movs	r1, #0
 c000fea:	6858      	ldr	r0, [r3, #4]
 c000fec:	47a0      	blx	r4
 c000fee:	4653      	mov	r3, sl
 c000ff0:	2210      	movs	r2, #16
 c000ff2:	2100      	movs	r1, #0
 c000ff4:	4681      	mov	r9, r0
 c000ff6:	6898      	ldr	r0, [r3, #8]
 c000ff8:	47a0      	blx	r4
 c000ffa:	4653      	mov	r3, sl
 c000ffc:	68dc      	ldr	r4, [r3, #12]
 c000ffe:	f646 63c5 	movw	r3, #28357	; 0x6ec5
 c001002:	0005      	movs	r5, r0
 c001004:	f2c0 0300 	movt	r3, #0
 c001008:	0020      	movs	r0, r4
 c00100a:	4798      	blx	r3
 c00100c:	0003      	movs	r3, r0
 c00100e:	900f      	str	r0, [sp, #60]	; 0x3c
 c001010:	07db      	lsls	r3, r3, #31
 c001012:	d474      	bmi.n	c0010fe <cmd_efuse_protect+0x3a2>
 c001014:	f240 16cc 	movw	r6, #460	; 0x1cc
 c001018:	9b0f      	ldr	r3, [sp, #60]	; 0x3c
 c00101a:	f2c0 0608 	movt	r6, #8
 c00101e:	085b      	lsrs	r3, r3, #1
 c001020:	930e      	str	r3, [sp, #56]	; 0x38
 c001022:	429d      	cmp	r5, r3
 c001024:	d007      	beq.n	c001036 <cmd_efuse_protect+0x2da>
 c001026:	6833      	ldr	r3, [r6, #0]
 c001028:	03db      	lsls	r3, r3, #15
 c00102a:	d500      	bpl.n	c00102e <cmd_efuse_protect+0x2d2>
 c00102c:	e0ce      	b.n	c0011cc <cmd_efuse_protect+0x470>
 c00102e:	9b0e      	ldr	r3, [sp, #56]	; 0x38
 c001030:	42ab      	cmp	r3, r5
 c001032:	d900      	bls.n	c001036 <cmd_efuse_protect+0x2da>
 c001034:	950e      	str	r5, [sp, #56]	; 0x38
 c001036:	9b0e      	ldr	r3, [sp, #56]	; 0x38
 c001038:	2b00      	cmp	r3, #0
 c00103a:	d100      	bne.n	c00103e <cmd_efuse_protect+0x2e2>
 c00103c:	e0b4      	b.n	c0011a8 <cmd_efuse_protect+0x44c>
 c00103e:	f246 475d 	movw	r7, #25693	; 0x645d
 c001042:	4698      	mov	r8, r3
 c001044:	f2c0 0700 	movt	r7, #0
 c001048:	003b      	movs	r3, r7
 c00104a:	ad10      	add	r5, sp, #64	; 0x40
 c00104c:	44a8      	add	r8, r5
 c00104e:	4647      	mov	r7, r8
 c001050:	46b0      	mov	r8, r6
 c001052:	001e      	movs	r6, r3
 c001054:	7861      	ldrb	r1, [r4, #1]
 c001056:	7820      	ldrb	r0, [r4, #0]
 c001058:	47b0      	blx	r6
 c00105a:	7028      	strb	r0, [r5, #0]
 c00105c:	3501      	adds	r5, #1
 c00105e:	3402      	adds	r4, #2
 c001060:	42af      	cmp	r7, r5
 c001062:	d1f7      	bne.n	c001054 <cmd_efuse_protect+0x2f8>
 c001064:	4646      	mov	r6, r8
 c001066:	6833      	ldr	r3, [r6, #0]
 c001068:	03db      	lsls	r3, r3, #15
 c00106a:	d500      	bpl.n	c00106e <cmd_efuse_protect+0x312>
 c00106c:	e09f      	b.n	c0011ae <cmd_efuse_protect+0x452>
 c00106e:	2580      	movs	r5, #128	; 0x80
 c001070:	9b0e      	ldr	r3, [sp, #56]	; 0x38
 c001072:	464c      	mov	r4, r9
 c001074:	444b      	add	r3, r9
 c001076:	001f      	movs	r7, r3
 c001078:	026d      	lsls	r5, r5, #9
 c00107a:	e010      	b.n	c00109e <cmd_efuse_protect+0x342>
 c00107c:	fffffbbc 	.word	0xfffffbbc
 c001080:	464a      	mov	r2, r9
 c001082:	f241 6861 	movw	r8, #5729	; 0x1661
 c001086:	ab10      	add	r3, sp, #64	; 0x40
 c001088:	1a9b      	subs	r3, r3, r2
 c00108a:	5d1a      	ldrb	r2, [r3, r4]
 c00108c:	0021      	movs	r1, r4
 c00108e:	2307      	movs	r3, #7
 c001090:	2000      	movs	r0, #0
 c001092:	f2c0 0800 	movt	r8, #0
 c001096:	47c0      	blx	r8
 c001098:	3401      	adds	r4, #1
 c00109a:	42bc      	cmp	r4, r7
 c00109c:	d014      	beq.n	c0010c8 <cmd_efuse_protect+0x36c>
 c00109e:	6833      	ldr	r3, [r6, #0]
 c0010a0:	422b      	tst	r3, r5
 c0010a2:	d13f      	bne.n	c001124 <cmd_efuse_protect+0x3c8>
 c0010a4:	2310      	movs	r3, #16
 c0010a6:	f6c4 0300 	movt	r3, #18432	; 0x4800
 c0010aa:	681b      	ldr	r3, [r3, #0]
 c0010ac:	015b      	lsls	r3, r3, #5
 c0010ae:	d4e7      	bmi.n	c001080 <cmd_efuse_protect+0x324>
 c0010b0:	6833      	ldr	r3, [r6, #0]
 c0010b2:	039b      	lsls	r3, r3, #14
 c0010b4:	d5f0      	bpl.n	c001098 <cmd_efuse_protect+0x33c>
 c0010b6:	f244 3060 	movw	r0, #17248	; 0x4360
 c0010ba:	3401      	adds	r4, #1
 c0010bc:	f6c0 4001 	movt	r0, #3073	; 0xc01
 c0010c0:	f012 fff6 	bl	c0140b0 <__DiagPrintf_veneer>
 c0010c4:	42bc      	cmp	r4, r7
 c0010c6:	d1ea      	bne.n	c00109e <cmd_efuse_protect+0x342>
 c0010c8:	4653      	mov	r3, sl
 c0010ca:	f244 5138 	movw	r1, #17720	; 0x4538
 c0010ce:	6818      	ldr	r0, [r3, #0]
 c0010d0:	f6c0 4101 	movt	r1, #3073	; 0xc01
 c0010d4:	47d8      	blx	fp
 c0010d6:	2800      	cmp	r0, #0
 c0010d8:	d000      	beq.n	c0010dc <cmd_efuse_protect+0x380>
 c0010da:	e678      	b.n	c000dce <cmd_efuse_protect+0x72>
 c0010dc:	22ef      	movs	r2, #239	; 0xef
 c0010de:	2140      	movs	r1, #64	; 0x40
 c0010e0:	2003      	movs	r0, #3
 c0010e2:	f7ff fcef 	bl	c000ac4 <cmd_efuse_extpath_write>
 c0010e6:	e672      	b.n	c000dce <cmd_efuse_protect+0x72>
 c0010e8:	03da      	lsls	r2, r3, #15
 c0010ea:	d400      	bmi.n	c0010ee <cmd_efuse_protect+0x392>
 c0010ec:	e6d1      	b.n	c000e92 <cmd_efuse_protect+0x136>
 c0010ee:	f244 4044 	movw	r0, #17476	; 0x4444
 c0010f2:	f6c0 4001 	movt	r0, #3073	; 0xc01
 c0010f6:	f012 ffdb 	bl	c0140b0 <__DiagPrintf_veneer>
 c0010fa:	6833      	ldr	r3, [r6, #0]
 c0010fc:	e6c9      	b.n	c000e92 <cmd_efuse_protect+0x136>
 c0010fe:	f240 13cc 	movw	r3, #460	; 0x1cc
 c001102:	f2c0 0308 	movt	r3, #8
 c001106:	681b      	ldr	r3, [r3, #0]
 c001108:	03db      	lsls	r3, r3, #15
 c00110a:	d400      	bmi.n	c00110e <cmd_efuse_protect+0x3b2>
 c00110c:	e65f      	b.n	c000dce <cmd_efuse_protect+0x72>
 c00110e:	0001      	movs	r1, r0
 c001110:	f244 3094 	movw	r0, #17300	; 0x4394
 c001114:	f6c0 4001 	movt	r0, #3073	; 0xc01
 c001118:	f012 ffca 	bl	c0140b0 <__DiagPrintf_veneer>
 c00111c:	e657      	b.n	c000dce <cmd_efuse_protect+0x72>
 c00111e:	6832      	ldr	r2, [r6, #0]
 c001120:	4013      	ands	r3, r2
 c001122:	e672      	b.n	c000e0a <cmd_efuse_protect+0xae>
 c001124:	464a      	mov	r2, r9
 c001126:	f244 5068 	movw	r0, #17768	; 0x4568
 c00112a:	ab10      	add	r3, sp, #64	; 0x40
 c00112c:	1a9b      	subs	r3, r3, r2
 c00112e:	5d1a      	ldrb	r2, [r3, r4]
 c001130:	0021      	movs	r1, r4
 c001132:	f6c0 4001 	movt	r0, #3073	; 0xc01
 c001136:	f012 ffbb 	bl	c0140b0 <__DiagPrintf_veneer>
 c00113a:	e7b3      	b.n	c0010a4 <cmd_efuse_protect+0x348>
 c00113c:	6833      	ldr	r3, [r6, #0]
 c00113e:	039b      	lsls	r3, r3, #14
 c001140:	d400      	bmi.n	c001144 <cmd_efuse_protect+0x3e8>
 c001142:	e68a      	b.n	c000e5a <cmd_efuse_protect+0xfe>
 c001144:	f244 3060 	movw	r0, #17248	; 0x4360
 c001148:	f6c0 4001 	movt	r0, #3073	; 0xc01
 c00114c:	f012 ffb0 	bl	c0140b0 <__DiagPrintf_veneer>
 c001150:	e683      	b.n	c000e5a <cmd_efuse_protect+0xfe>
 c001152:	0001      	movs	r1, r0
 c001154:	f244 3094 	movw	r0, #17300	; 0x4394
 c001158:	f6c0 4001 	movt	r0, #3073	; 0xc01
 c00115c:	f012 ffa8 	bl	c0140b0 <__DiagPrintf_veneer>
 c001160:	e635      	b.n	c000dce <cmd_efuse_protect+0x72>
 c001162:	f244 40cc 	movw	r0, #17612	; 0x44cc
 c001166:	f6c0 4001 	movt	r0, #3073	; 0xc01
 c00116a:	f012 ffa1 	bl	c0140b0 <__DiagPrintf_veneer>
 c00116e:	e6da      	b.n	c000f26 <cmd_efuse_protect+0x1ca>
 c001170:	f244 4034 	movw	r0, #17460	; 0x4434
 c001174:	f6c0 4001 	movt	r0, #3073	; 0xc01
 c001178:	f012 ff9a 	bl	c0140b0 <__DiagPrintf_veneer>
 c00117c:	e67e      	b.n	c000e7c <cmd_efuse_protect+0x120>
 c00117e:	2301      	movs	r3, #1
 c001180:	002a      	movs	r2, r5
 c001182:	f244 30fc 	movw	r0, #17404	; 0x43fc
 c001186:	439a      	bics	r2, r3
 c001188:	4649      	mov	r1, r9
 c00118a:	f6c0 4001 	movt	r0, #3073	; 0xc01
 c00118e:	f012 ff8f 	bl	c0140b0 <__DiagPrintf_veneer>
 c001192:	e63d      	b.n	c000e10 <cmd_efuse_protect+0xb4>
 c001194:	f244 30b8 	movw	r0, #17336	; 0x43b8
 c001198:	f6c0 4001 	movt	r0, #3073	; 0xc01
 c00119c:	f012 ff88 	bl	c0140b0 <__DiagPrintf_veneer>
 c0011a0:	4643      	mov	r3, r8
 c0011a2:	6832      	ldr	r2, [r6, #0]
 c0011a4:	4013      	ands	r3, r2
 c0011a6:	e62d      	b.n	c000e04 <cmd_efuse_protect+0xa8>
 c0011a8:	6833      	ldr	r3, [r6, #0]
 c0011aa:	03db      	lsls	r3, r3, #15
 c0011ac:	d58c      	bpl.n	c0010c8 <cmd_efuse_protect+0x36c>
 c0011ae:	2301      	movs	r3, #1
 c0011b0:	f244 5040 	movw	r0, #17728	; 0x4540
 c0011b4:	9c0e      	ldr	r4, [sp, #56]	; 0x38
 c0011b6:	9a0f      	ldr	r2, [sp, #60]	; 0x3c
 c0011b8:	0021      	movs	r1, r4
 c0011ba:	439a      	bics	r2, r3
 c0011bc:	f6c0 4001 	movt	r0, #3073	; 0xc01
 c0011c0:	f012 ff76 	bl	c0140b0 <__DiagPrintf_veneer>
 c0011c4:	2c00      	cmp	r4, #0
 c0011c6:	d000      	beq.n	c0011ca <cmd_efuse_protect+0x46e>
 c0011c8:	e751      	b.n	c00106e <cmd_efuse_protect+0x312>
 c0011ca:	e77d      	b.n	c0010c8 <cmd_efuse_protect+0x36c>
 c0011cc:	f244 30b8 	movw	r0, #17336	; 0x43b8
 c0011d0:	f6c0 4001 	movt	r0, #3073	; 0xc01
 c0011d4:	f012 ff6c 	bl	c0140b0 <__DiagPrintf_veneer>
 c0011d8:	e729      	b.n	c00102e <cmd_efuse_protect+0x2d2>
 c0011da:	2307      	movs	r3, #7
 c0011dc:	002a      	movs	r2, r5
 c0011de:	0021      	movs	r1, r4
 c0011e0:	9e0f      	ldr	r6, [sp, #60]	; 0x3c
 c0011e2:	2000      	movs	r0, #0
 c0011e4:	47b0      	blx	r6
 c0011e6:	e6b3      	b.n	c000f50 <cmd_efuse_protect+0x1f4>

0c0011e8 <prvTaskExitError>:
 c0011e8:	2300      	movs	r3, #0
 c0011ea:	b082      	sub	sp, #8
 c0011ec:	9301      	str	r3, [sp, #4]
 c0011ee:	b672      	cpsid	i
 c0011f0:	9b01      	ldr	r3, [sp, #4]
 c0011f2:	2b00      	cmp	r3, #0
 c0011f4:	d0fc      	beq.n	c0011f0 <prvTaskExitError+0x8>
 c0011f6:	b002      	add	sp, #8
 c0011f8:	4770      	bx	lr
 c0011fa:	bf00      	nop
 c0011fc:	0000      	movs	r0, r0
	...

0c001200 <vPortStartFirstTask>:
 c001200:	4a0b      	ldr	r2, [pc, #44]	; (c001230 <pxCurrentTCBConst2>)
 c001202:	6813      	ldr	r3, [r2, #0]
 c001204:	6818      	ldr	r0, [r3, #0]
 c001206:	3020      	adds	r0, #32
 c001208:	f380 8809 	msr	PSP, r0
 c00120c:	2002      	movs	r0, #2
 c00120e:	f380 8814 	msr	CONTROL, r0
 c001212:	f3bf 8f6f 	isb	sy
 c001216:	bc3f      	pop	{r0, r1, r2, r3, r4, r5}
 c001218:	46ae      	mov	lr, r5
 c00121a:	bc08      	pop	{r3}
 c00121c:	bc04      	pop	{r2}
 c00121e:	b662      	cpsie	i
 c001220:	4718      	bx	r3
 c001222:	bf00      	nop
 c001224:	bf00      	nop
 c001226:	bf00      	nop
 c001228:	bf00      	nop
 c00122a:	bf00      	nop
 c00122c:	bf00      	nop
 c00122e:	bf00      	nop

0c001230 <pxCurrentTCBConst2>:
 c001230:	00085574 	.word	0x00085574

0c001234 <pxPortInitialiseStack>:
 c001234:	b510      	push	{r4, lr}
 c001236:	2480      	movs	r4, #128	; 0x80
 c001238:	1f03      	subs	r3, r0, #4
 c00123a:	0464      	lsls	r4, r4, #17
 c00123c:	601c      	str	r4, [r3, #0]
 c00123e:	3b04      	subs	r3, #4
 c001240:	6019      	str	r1, [r3, #0]
 c001242:	0001      	movs	r1, r0
 c001244:	f241 13e9 	movw	r3, #4585	; 0x11e9
 c001248:	390c      	subs	r1, #12
 c00124a:	f6c0 4300 	movt	r3, #3072	; 0xc00
 c00124e:	600b      	str	r3, [r1, #0]
 c001250:	0003      	movs	r3, r0
 c001252:	3b20      	subs	r3, #32
 c001254:	3840      	subs	r0, #64	; 0x40
 c001256:	601a      	str	r2, [r3, #0]
 c001258:	bd10      	pop	{r4, pc}
 c00125a:	bf00      	nop

0c00125c <SVC_Handler>:
 c00125c:	4770      	bx	lr
 c00125e:	bf00      	nop

0c001260 <xPortStartScheduler>:
 c001260:	f64e 5320 	movw	r3, #60704	; 0xed20
 c001264:	22ff      	movs	r2, #255	; 0xff
 c001266:	f2ce 0300 	movt	r3, #57344	; 0xe000
 c00126a:	6819      	ldr	r1, [r3, #0]
 c00126c:	0412      	lsls	r2, r2, #16
 c00126e:	430a      	orrs	r2, r1
 c001270:	b510      	push	{r4, lr}
 c001272:	601a      	str	r2, [r3, #0]
 c001274:	22ff      	movs	r2, #255	; 0xff
 c001276:	6819      	ldr	r1, [r3, #0]
 c001278:	0612      	lsls	r2, r2, #24
 c00127a:	430a      	orrs	r2, r1
 c00127c:	601a      	str	r2, [r3, #0]
 c00127e:	f24e 0210 	movw	r2, #57360	; 0xe010
 c001282:	f24e 0318 	movw	r3, #57368	; 0xe018
 c001286:	2400      	movs	r4, #0
 c001288:	f2ce 0200 	movt	r2, #57344	; 0xe000
 c00128c:	f2ce 0300 	movt	r3, #57344	; 0xe000
 c001290:	6014      	str	r4, [r2, #0]
 c001292:	601c      	str	r4, [r3, #0]
 c001294:	f245 13f8 	movw	r3, #20984	; 0x51f8
 c001298:	f240 31e8 	movw	r1, #1000	; 0x3e8
 c00129c:	f2c0 0308 	movt	r3, #8
 c0012a0:	681b      	ldr	r3, [r3, #0]
 c0012a2:	b082      	sub	sp, #8
 c0012a4:	fbb3 f3f1 	udiv	r3, r3, r1
 c0012a8:	f24e 0114 	movw	r1, #57364	; 0xe014
 c0012ac:	3b01      	subs	r3, #1
 c0012ae:	f2ce 0100 	movt	r1, #57344	; 0xe000
 c0012b2:	600b      	str	r3, [r1, #0]
 c0012b4:	2307      	movs	r3, #7
 c0012b6:	6013      	str	r3, [r2, #0]
 c0012b8:	f644 1398 	movw	r3, #18840	; 0x4998
 c0012bc:	f2c0 0308 	movt	r3, #8
 c0012c0:	601c      	str	r4, [r3, #0]
 c0012c2:	f7ff ff9d 	bl	c001200 <vPortStartFirstTask>
 c0012c6:	f004 fac7 	bl	c005858 <vTaskSwitchContext>
 c0012ca:	9401      	str	r4, [sp, #4]
 c0012cc:	b672      	cpsid	i
 c0012ce:	9b01      	ldr	r3, [sp, #4]
 c0012d0:	2b00      	cmp	r3, #0
 c0012d2:	d0fc      	beq.n	c0012ce <xPortStartScheduler+0x6e>
 c0012d4:	2000      	movs	r0, #0
 c0012d6:	b002      	add	sp, #8
 c0012d8:	bd10      	pop	{r4, pc}
 c0012da:	bf00      	nop

0c0012dc <vPortYield>:
 c0012dc:	f64e 5304 	movw	r3, #60676	; 0xed04
 c0012e0:	2280      	movs	r2, #128	; 0x80
 c0012e2:	f2ce 0300 	movt	r3, #57344	; 0xe000
 c0012e6:	0552      	lsls	r2, r2, #21
 c0012e8:	601a      	str	r2, [r3, #0]
 c0012ea:	f3bf 8f4f 	dsb	sy
 c0012ee:	f3bf 8f6f 	isb	sy
 c0012f2:	4770      	bx	lr

0c0012f4 <vPortEnterCritical>:
 c0012f4:	b672      	cpsid	i
 c0012f6:	f644 1398 	movw	r3, #18840	; 0x4998
 c0012fa:	f2c0 0308 	movt	r3, #8
 c0012fe:	681a      	ldr	r2, [r3, #0]
 c001300:	3201      	adds	r2, #1
 c001302:	601a      	str	r2, [r3, #0]
 c001304:	f3bf 8f4f 	dsb	sy
 c001308:	f3bf 8f6f 	isb	sy
 c00130c:	4770      	bx	lr
 c00130e:	bf00      	nop

0c001310 <vPortExitCritical>:
 c001310:	f644 1298 	movw	r2, #18840	; 0x4998
 c001314:	f2c0 0208 	movt	r2, #8
 c001318:	6813      	ldr	r3, [r2, #0]
 c00131a:	3b01      	subs	r3, #1
 c00131c:	6013      	str	r3, [r2, #0]
 c00131e:	b903      	cbnz	r3, c001322 <vPortExitCritical+0x12>
 c001320:	b662      	cpsie	i
 c001322:	4770      	bx	lr

0c001324 <ulSetInterruptMaskFromISR>:
 c001324:	f3ef 8010 	mrs	r0, PRIMASK
 c001328:	b672      	cpsid	i
 c00132a:	4770      	bx	lr
 c00132c:	2000      	movs	r0, #0
 c00132e:	bf00      	nop

0c001330 <vClearInterruptMaskFromISR>:
 c001330:	f380 8810 	msr	PRIMASK, r0
 c001334:	4770      	bx	lr
 c001336:	bf00      	nop
	...

0c001340 <PendSV_Handler>:
 c001340:	f3ef 8009 	mrs	r0, PSP
 c001344:	4b0e      	ldr	r3, [pc, #56]	; (c001380 <pxCurrentTCBConst>)
 c001346:	681a      	ldr	r2, [r3, #0]
 c001348:	3820      	subs	r0, #32
 c00134a:	6010      	str	r0, [r2, #0]
 c00134c:	c0f0      	stmia	r0!, {r4, r5, r6, r7}
 c00134e:	4644      	mov	r4, r8
 c001350:	464d      	mov	r5, r9
 c001352:	4656      	mov	r6, sl
 c001354:	465f      	mov	r7, fp
 c001356:	c0f0      	stmia	r0!, {r4, r5, r6, r7}
 c001358:	b508      	push	{r3, lr}
 c00135a:	b672      	cpsid	i
 c00135c:	f004 fa7c 	bl	c005858 <vTaskSwitchContext>
 c001360:	b662      	cpsie	i
 c001362:	bc0c      	pop	{r2, r3}
 c001364:	6811      	ldr	r1, [r2, #0]
 c001366:	6808      	ldr	r0, [r1, #0]
 c001368:	3010      	adds	r0, #16
 c00136a:	c8f0      	ldmia	r0!, {r4, r5, r6, r7}
 c00136c:	46a0      	mov	r8, r4
 c00136e:	46a9      	mov	r9, r5
 c001370:	46b2      	mov	sl, r6
 c001372:	46bb      	mov	fp, r7
 c001374:	f380 8809 	msr	PSP, r0
 c001378:	3820      	subs	r0, #32
 c00137a:	c8f0      	ldmia	r0!, {r4, r5, r6, r7}
 c00137c:	4718      	bx	r3
 c00137e:	bf00      	nop

0c001380 <pxCurrentTCBConst>:
 c001380:	00085574 	.word	0x00085574

0c001384 <SysTick_Handler>:
 c001384:	b510      	push	{r4, lr}
 c001386:	f7ff ffcd 	bl	c001324 <ulSetInterruptMaskFromISR>
 c00138a:	0004      	movs	r4, r0
 c00138c:	f004 f8d0 	bl	c005530 <xTaskIncrementTick>
 c001390:	b130      	cbz	r0, c0013a0 <SysTick_Handler+0x1c>
 c001392:	f64e 5304 	movw	r3, #60676	; 0xed04
 c001396:	2280      	movs	r2, #128	; 0x80
 c001398:	f2ce 0300 	movt	r3, #57344	; 0xe000
 c00139c:	0552      	lsls	r2, r2, #21
 c00139e:	601a      	str	r2, [r3, #0]
 c0013a0:	0020      	movs	r0, r4
 c0013a2:	f7ff ffc5 	bl	c001330 <vClearInterruptMaskFromISR>
 c0013a6:	bd10      	pop	{r4, pc}

0c0013a8 <vApplicationIdleHook>:
 c0013a8:	b510      	push	{r4, lr}
 c0013aa:	f012 fe91 	bl	c0140d0 <__app_taskidle_handler_veneer>
 c0013ae:	bd10      	pop	{r4, pc}

0c0013b0 <vApplicationStackOverflowHook>:
 c0013b0:	000a      	movs	r2, r1
 c0013b2:	f644 009c 	movw	r0, #18588	; 0x489c
 c0013b6:	f644 017c 	movw	r1, #18556	; 0x487c
 c0013ba:	b510      	push	{r4, lr}
 c0013bc:	f6c0 4101 	movt	r1, #3073	; 0xc01
 c0013c0:	f6c0 4001 	movt	r0, #3073	; 0xc01
 c0013c4:	f012 fe74 	bl	c0140b0 <__DiagPrintf_veneer>
 c0013c8:	e7fe      	b.n	c0013c8 <vApplicationStackOverflowHook+0x18>
 c0013ca:	bf00      	nop

0c0013cc <prvCopyDataToQueue>:
 c0013cc:	b570      	push	{r4, r5, r6, lr}
 c0013ce:	0016      	movs	r6, r2
 c0013d0:	6c02      	ldr	r2, [r0, #64]	; 0x40
 c0013d2:	0004      	movs	r4, r0
 c0013d4:	6b85      	ldr	r5, [r0, #56]	; 0x38
 c0013d6:	b92a      	cbnz	r2, c0013e4 <prvCopyDataToQueue+0x18>
 c0013d8:	6806      	ldr	r6, [r0, #0]
 c0013da:	b34e      	cbz	r6, c001430 <prvCopyDataToQueue+0x64>
 c0013dc:	2000      	movs	r0, #0
 c0013de:	3501      	adds	r5, #1
 c0013e0:	63a5      	str	r5, [r4, #56]	; 0x38
 c0013e2:	bd70      	pop	{r4, r5, r6, pc}
 c0013e4:	b96e      	cbnz	r6, c001402 <prvCopyDataToQueue+0x36>
 c0013e6:	6840      	ldr	r0, [r0, #4]
 c0013e8:	f012 fbb0 	bl	c013b4c <memcpy>
 c0013ec:	6c22      	ldr	r2, [r4, #64]	; 0x40
 c0013ee:	6863      	ldr	r3, [r4, #4]
 c0013f0:	4694      	mov	ip, r2
 c0013f2:	68a2      	ldr	r2, [r4, #8]
 c0013f4:	4463      	add	r3, ip
 c0013f6:	6063      	str	r3, [r4, #4]
 c0013f8:	4293      	cmp	r3, r2
 c0013fa:	d3ef      	bcc.n	c0013dc <prvCopyDataToQueue+0x10>
 c0013fc:	6823      	ldr	r3, [r4, #0]
 c0013fe:	6063      	str	r3, [r4, #4]
 c001400:	e7ec      	b.n	c0013dc <prvCopyDataToQueue+0x10>
 c001402:	68c0      	ldr	r0, [r0, #12]
 c001404:	f012 fba2 	bl	c013b4c <memcpy>
 c001408:	6c23      	ldr	r3, [r4, #64]	; 0x40
 c00140a:	6821      	ldr	r1, [r4, #0]
 c00140c:	425a      	negs	r2, r3
 c00140e:	68e3      	ldr	r3, [r4, #12]
 c001410:	189b      	adds	r3, r3, r2
 c001412:	60e3      	str	r3, [r4, #12]
 c001414:	428b      	cmp	r3, r1
 c001416:	d203      	bcs.n	c001420 <prvCopyDataToQueue+0x54>
 c001418:	68a3      	ldr	r3, [r4, #8]
 c00141a:	469c      	mov	ip, r3
 c00141c:	4462      	add	r2, ip
 c00141e:	60e2      	str	r2, [r4, #12]
 c001420:	2e02      	cmp	r6, #2
 c001422:	d1db      	bne.n	c0013dc <prvCopyDataToQueue+0x10>
 c001424:	b10d      	cbz	r5, c00142a <prvCopyDataToQueue+0x5e>
 c001426:	2000      	movs	r0, #0
 c001428:	e7da      	b.n	c0013e0 <prvCopyDataToQueue+0x14>
 c00142a:	2501      	movs	r5, #1
 c00142c:	2000      	movs	r0, #0
 c00142e:	e7d7      	b.n	c0013e0 <prvCopyDataToQueue+0x14>
 c001430:	6880      	ldr	r0, [r0, #8]
 c001432:	f004 fb5d 	bl	c005af0 <xTaskPriorityDisinherit>
 c001436:	3501      	adds	r5, #1
 c001438:	60a6      	str	r6, [r4, #8]
 c00143a:	e7d1      	b.n	c0013e0 <prvCopyDataToQueue+0x14>

0c00143c <prvNotifyQueueSetContainer>:
 c00143c:	b5f0      	push	{r4, r5, r6, r7, lr}
 c00143e:	6c84      	ldr	r4, [r0, #72]	; 0x48
 c001440:	b083      	sub	sp, #12
 c001442:	6ba3      	ldr	r3, [r4, #56]	; 0x38
 c001444:	6be2      	ldr	r2, [r4, #60]	; 0x3c
 c001446:	9001      	str	r0, [sp, #4]
 c001448:	2600      	movs	r6, #0
 c00144a:	4293      	cmp	r3, r2
 c00144c:	d302      	bcc.n	c001454 <prvNotifyQueueSetContainer+0x18>
 c00144e:	0030      	movs	r0, r6
 c001450:	b003      	add	sp, #12
 c001452:	bdf0      	pop	{r4, r5, r6, r7, pc}
 c001454:	2745      	movs	r7, #69	; 0x45
 c001456:	000a      	movs	r2, r1
 c001458:	0020      	movs	r0, r4
 c00145a:	a901      	add	r1, sp, #4
 c00145c:	5de5      	ldrb	r5, [r4, r7]
 c00145e:	f7ff ffb5 	bl	c0013cc <prvCopyDataToQueue>
 c001462:	b26d      	sxtb	r5, r5
 c001464:	0006      	movs	r6, r0
 c001466:	1c6b      	adds	r3, r5, #1
 c001468:	d003      	beq.n	c001472 <prvNotifyQueueSetContainer+0x36>
 c00146a:	3501      	adds	r5, #1
 c00146c:	b26d      	sxtb	r5, r5
 c00146e:	55e5      	strb	r5, [r4, r7]
 c001470:	e7ed      	b.n	c00144e <prvNotifyQueueSetContainer+0x12>
 c001472:	6a63      	ldr	r3, [r4, #36]	; 0x24
 c001474:	2b00      	cmp	r3, #0
 c001476:	d0ea      	beq.n	c00144e <prvNotifyQueueSetContainer+0x12>
 c001478:	0020      	movs	r0, r4
 c00147a:	3024      	adds	r0, #36	; 0x24
 c00147c:	f004 fa22 	bl	c0058c4 <xTaskRemoveFromEventList>
 c001480:	2800      	cmp	r0, #0
 c001482:	d0e4      	beq.n	c00144e <prvNotifyQueueSetContainer+0x12>
 c001484:	2601      	movs	r6, #1
 c001486:	e7e2      	b.n	c00144e <prvNotifyQueueSetContainer+0x12>

0c001488 <prvCopyDataFromQueue>:
 c001488:	6c02      	ldr	r2, [r0, #64]	; 0x40
 c00148a:	b510      	push	{r4, lr}
 c00148c:	000b      	movs	r3, r1
 c00148e:	b142      	cbz	r2, c0014a2 <prvCopyDataFromQueue+0x1a>
 c001490:	68c1      	ldr	r1, [r0, #12]
 c001492:	6884      	ldr	r4, [r0, #8]
 c001494:	1889      	adds	r1, r1, r2
 c001496:	60c1      	str	r1, [r0, #12]
 c001498:	42a1      	cmp	r1, r4
 c00149a:	d203      	bcs.n	c0014a4 <prvCopyDataFromQueue+0x1c>
 c00149c:	0018      	movs	r0, r3
 c00149e:	f012 fb55 	bl	c013b4c <memcpy>
 c0014a2:	bd10      	pop	{r4, pc}
 c0014a4:	6801      	ldr	r1, [r0, #0]
 c0014a6:	60c1      	str	r1, [r0, #12]
 c0014a8:	e7f8      	b.n	c00149c <prvCopyDataFromQueue+0x14>
 c0014aa:	bf00      	nop

0c0014ac <prvUnlockQueue>:
 c0014ac:	b570      	push	{r4, r5, r6, lr}
 c0014ae:	0005      	movs	r5, r0
 c0014b0:	f7ff ff20 	bl	c0012f4 <vPortEnterCritical>
 c0014b4:	2345      	movs	r3, #69	; 0x45
 c0014b6:	002e      	movs	r6, r5
 c0014b8:	5cec      	ldrb	r4, [r5, r3]
 c0014ba:	3624      	adds	r6, #36	; 0x24
 c0014bc:	b264      	sxtb	r4, r4
 c0014be:	2c00      	cmp	r4, #0
 c0014c0:	dc09      	bgt.n	c0014d6 <prvUnlockQueue+0x2a>
 c0014c2:	e019      	b.n	c0014f8 <prvUnlockQueue+0x4c>
 c0014c4:	2100      	movs	r1, #0
 c0014c6:	0028      	movs	r0, r5
 c0014c8:	f7ff ffb8 	bl	c00143c <prvNotifyQueueSetContainer>
 c0014cc:	b968      	cbnz	r0, c0014ea <prvUnlockQueue+0x3e>
 c0014ce:	3c01      	subs	r4, #1
 c0014d0:	b2e3      	uxtb	r3, r4
 c0014d2:	b25c      	sxtb	r4, r3
 c0014d4:	b183      	cbz	r3, c0014f8 <prvUnlockQueue+0x4c>
 c0014d6:	6cab      	ldr	r3, [r5, #72]	; 0x48
 c0014d8:	2b00      	cmp	r3, #0
 c0014da:	d1f3      	bne.n	c0014c4 <prvUnlockQueue+0x18>
 c0014dc:	6a6b      	ldr	r3, [r5, #36]	; 0x24
 c0014de:	b15b      	cbz	r3, c0014f8 <prvUnlockQueue+0x4c>
 c0014e0:	0030      	movs	r0, r6
 c0014e2:	f004 f9ef 	bl	c0058c4 <xTaskRemoveFromEventList>
 c0014e6:	2800      	cmp	r0, #0
 c0014e8:	d0f1      	beq.n	c0014ce <prvUnlockQueue+0x22>
 c0014ea:	3c01      	subs	r4, #1
 c0014ec:	f004 fa78 	bl	c0059e0 <vTaskMissedYield>
 c0014f0:	b2e3      	uxtb	r3, r4
 c0014f2:	b25c      	sxtb	r4, r3
 c0014f4:	2b00      	cmp	r3, #0
 c0014f6:	d1ee      	bne.n	c0014d6 <prvUnlockQueue+0x2a>
 c0014f8:	2345      	movs	r3, #69	; 0x45
 c0014fa:	22ff      	movs	r2, #255	; 0xff
 c0014fc:	54ea      	strb	r2, [r5, r3]
 c0014fe:	f7ff ff07 	bl	c001310 <vPortExitCritical>
 c001502:	f7ff fef7 	bl	c0012f4 <vPortEnterCritical>
 c001506:	2344      	movs	r3, #68	; 0x44
 c001508:	5cec      	ldrb	r4, [r5, r3]
 c00150a:	b264      	sxtb	r4, r4
 c00150c:	2c00      	cmp	r4, #0
 c00150e:	dd16      	ble.n	c00153e <prvUnlockQueue+0x92>
 c001510:	692b      	ldr	r3, [r5, #16]
 c001512:	b1a3      	cbz	r3, c00153e <prvUnlockQueue+0x92>
 c001514:	002e      	movs	r6, r5
 c001516:	3610      	adds	r6, #16
 c001518:	e005      	b.n	c001526 <prvUnlockQueue+0x7a>
 c00151a:	3c01      	subs	r4, #1
 c00151c:	b2e3      	uxtb	r3, r4
 c00151e:	b25c      	sxtb	r4, r3
 c001520:	b16b      	cbz	r3, c00153e <prvUnlockQueue+0x92>
 c001522:	692b      	ldr	r3, [r5, #16]
 c001524:	b15b      	cbz	r3, c00153e <prvUnlockQueue+0x92>
 c001526:	0030      	movs	r0, r6
 c001528:	f004 f9cc 	bl	c0058c4 <xTaskRemoveFromEventList>
 c00152c:	2800      	cmp	r0, #0
 c00152e:	d0f4      	beq.n	c00151a <prvUnlockQueue+0x6e>
 c001530:	3c01      	subs	r4, #1
 c001532:	f004 fa55 	bl	c0059e0 <vTaskMissedYield>
 c001536:	b2e3      	uxtb	r3, r4
 c001538:	b25c      	sxtb	r4, r3
 c00153a:	2b00      	cmp	r3, #0
 c00153c:	d1f1      	bne.n	c001522 <prvUnlockQueue+0x76>
 c00153e:	22ff      	movs	r2, #255	; 0xff
 c001540:	2344      	movs	r3, #68	; 0x44
 c001542:	54ea      	strb	r2, [r5, r3]
 c001544:	f7ff fee4 	bl	c001310 <vPortExitCritical>
 c001548:	bd70      	pop	{r4, r5, r6, pc}
 c00154a:	bf00      	nop

0c00154c <xQueueGenericReset>:
 c00154c:	b570      	push	{r4, r5, r6, lr}
 c00154e:	0004      	movs	r4, r0
 c001550:	000d      	movs	r5, r1
 c001552:	f7ff fecf 	bl	c0012f4 <vPortEnterCritical>
 c001556:	6c21      	ldr	r1, [r4, #64]	; 0x40
 c001558:	6be3      	ldr	r3, [r4, #60]	; 0x3c
 c00155a:	6822      	ldr	r2, [r4, #0]
 c00155c:	434b      	muls	r3, r1
 c00155e:	18d0      	adds	r0, r2, r3
 c001560:	1a5b      	subs	r3, r3, r1
 c001562:	18d3      	adds	r3, r2, r3
 c001564:	60a0      	str	r0, [r4, #8]
 c001566:	6062      	str	r2, [r4, #4]
 c001568:	60e3      	str	r3, [r4, #12]
 c00156a:	2244      	movs	r2, #68	; 0x44
 c00156c:	23ff      	movs	r3, #255	; 0xff
 c00156e:	2000      	movs	r0, #0
 c001570:	63a0      	str	r0, [r4, #56]	; 0x38
 c001572:	54a3      	strb	r3, [r4, r2]
 c001574:	3201      	adds	r2, #1
 c001576:	54a3      	strb	r3, [r4, r2]
 c001578:	b975      	cbnz	r5, c001598 <xQueueGenericReset+0x4c>
 c00157a:	6923      	ldr	r3, [r4, #16]
 c00157c:	b91b      	cbnz	r3, c001586 <xQueueGenericReset+0x3a>
 c00157e:	f7ff fec7 	bl	c001310 <vPortExitCritical>
 c001582:	2001      	movs	r0, #1
 c001584:	bd70      	pop	{r4, r5, r6, pc}
 c001586:	0020      	movs	r0, r4
 c001588:	3010      	adds	r0, #16
 c00158a:	f004 f99b 	bl	c0058c4 <xTaskRemoveFromEventList>
 c00158e:	2800      	cmp	r0, #0
 c001590:	d0f5      	beq.n	c00157e <xQueueGenericReset+0x32>
 c001592:	f7ff fea3 	bl	c0012dc <vPortYield>
 c001596:	e7f2      	b.n	c00157e <xQueueGenericReset+0x32>
 c001598:	0020      	movs	r0, r4
 c00159a:	3010      	adds	r0, #16
 c00159c:	f7fe fe50 	bl	c000240 <vListInitialise>
 c0015a0:	0020      	movs	r0, r4
 c0015a2:	3024      	adds	r0, #36	; 0x24
 c0015a4:	f7fe fe4c 	bl	c000240 <vListInitialise>
 c0015a8:	e7e9      	b.n	c00157e <xQueueGenericReset+0x32>
 c0015aa:	bf00      	nop

0c0015ac <xQueueGenericCreate>:
 c0015ac:	b5f8      	push	{r3, r4, r5, r6, r7, lr}
 c0015ae:	0006      	movs	r6, r0
 c0015b0:	4348      	muls	r0, r1
 c0015b2:	3054      	adds	r0, #84	; 0x54
 c0015b4:	000d      	movs	r5, r1
 c0015b6:	0017      	movs	r7, r2
 c0015b8:	f7fe fd74 	bl	c0000a4 <pvPortMalloc>
 c0015bc:	0004      	movs	r4, r0
 c0015be:	b168      	cbz	r0, c0015dc <xQueueGenericCreate+0x30>
 c0015c0:	b175      	cbz	r5, c0015e0 <xQueueGenericCreate+0x34>
 c0015c2:	0003      	movs	r3, r0
 c0015c4:	3354      	adds	r3, #84	; 0x54
 c0015c6:	6003      	str	r3, [r0, #0]
 c0015c8:	63e6      	str	r6, [r4, #60]	; 0x3c
 c0015ca:	6425      	str	r5, [r4, #64]	; 0x40
 c0015cc:	2101      	movs	r1, #1
 c0015ce:	0020      	movs	r0, r4
 c0015d0:	f7ff ffbc 	bl	c00154c <xQueueGenericReset>
 c0015d4:	2350      	movs	r3, #80	; 0x50
 c0015d6:	54e7      	strb	r7, [r4, r3]
 c0015d8:	2300      	movs	r3, #0
 c0015da:	64a3      	str	r3, [r4, #72]	; 0x48
 c0015dc:	0020      	movs	r0, r4
 c0015de:	bdf8      	pop	{r3, r4, r5, r6, r7, pc}
 c0015e0:	6020      	str	r0, [r4, #0]
 c0015e2:	e7f1      	b.n	c0015c8 <xQueueGenericCreate+0x1c>

0c0015e4 <xQueueGenericSend>:
 c0015e4:	b5f0      	push	{r4, r5, r6, r7, lr}
 c0015e6:	4647      	mov	r7, r8
 c0015e8:	46ce      	mov	lr, r9
 c0015ea:	b580      	push	{r7, lr}
 c0015ec:	b085      	sub	sp, #20
 c0015ee:	0004      	movs	r4, r0
 c0015f0:	4688      	mov	r8, r1
 c0015f2:	9201      	str	r2, [sp, #4]
 c0015f4:	001e      	movs	r6, r3
 c0015f6:	f240 0900 	movw	r9, #0
 c0015fa:	2544      	movs	r5, #68	; 0x44
 c0015fc:	2700      	movs	r7, #0
 c0015fe:	e024      	b.n	c00164a <xQueueGenericSend+0x66>
 c001600:	f7ff fe86 	bl	c001310 <vPortExitCritical>
 c001604:	f003 ff7e 	bl	c005504 <vTaskSuspendAll>
 c001608:	f7ff fe74 	bl	c0012f4 <vPortEnterCritical>
 c00160c:	5d63      	ldrb	r3, [r4, r5]
 c00160e:	b25b      	sxtb	r3, r3
 c001610:	3301      	adds	r3, #1
 c001612:	d04d      	beq.n	c0016b0 <xQueueGenericSend+0xcc>
 c001614:	2245      	movs	r2, #69	; 0x45
 c001616:	5ca3      	ldrb	r3, [r4, r2]
 c001618:	b25b      	sxtb	r3, r3
 c00161a:	3301      	adds	r3, #1
 c00161c:	d038      	beq.n	c001690 <xQueueGenericSend+0xac>
 c00161e:	f7ff fe77 	bl	c001310 <vPortExitCritical>
 c001622:	a901      	add	r1, sp, #4
 c001624:	a802      	add	r0, sp, #8
 c001626:	f004 f9ad 	bl	c005984 <xTaskCheckForTimeOut>
 c00162a:	bbd0      	cbnz	r0, c0016a2 <xQueueGenericSend+0xbe>
 c00162c:	f7ff fe62 	bl	c0012f4 <vPortEnterCritical>
 c001630:	6ba3      	ldr	r3, [r4, #56]	; 0x38
 c001632:	6be2      	ldr	r2, [r4, #60]	; 0x3c
 c001634:	4293      	cmp	r3, r2
 c001636:	d01a      	beq.n	c00166e <xQueueGenericSend+0x8a>
 c001638:	f7ff fe6a 	bl	c001310 <vPortExitCritical>
 c00163c:	0020      	movs	r0, r4
 c00163e:	f7ff ff35 	bl	c0014ac <prvUnlockQueue>
 c001642:	f004 f82f 	bl	c0056a4 <xTaskResumeAll>
 c001646:	f240 0901 	movw	r9, #1
 c00164a:	f7ff fe53 	bl	c0012f4 <vPortEnterCritical>
 c00164e:	6ba3      	ldr	r3, [r4, #56]	; 0x38
 c001650:	6be2      	ldr	r2, [r4, #60]	; 0x3c
 c001652:	4293      	cmp	r3, r2
 c001654:	d32e      	bcc.n	c0016b4 <xQueueGenericSend+0xd0>
 c001656:	2e02      	cmp	r6, #2
 c001658:	d043      	beq.n	c0016e2 <xQueueGenericSend+0xfe>
 c00165a:	9b01      	ldr	r3, [sp, #4]
 c00165c:	2b00      	cmp	r3, #0
 c00165e:	d053      	beq.n	c001708 <xQueueGenericSend+0x124>
 c001660:	464b      	mov	r3, r9
 c001662:	2b00      	cmp	r3, #0
 c001664:	d1cc      	bne.n	c001600 <xQueueGenericSend+0x1c>
 c001666:	a802      	add	r0, sp, #8
 c001668:	f004 f97e 	bl	c005968 <vTaskInternalSetTimeOutState>
 c00166c:	e7c8      	b.n	c001600 <xQueueGenericSend+0x1c>
 c00166e:	f7ff fe4f 	bl	c001310 <vPortExitCritical>
 c001672:	0020      	movs	r0, r4
 c001674:	9901      	ldr	r1, [sp, #4]
 c001676:	3010      	adds	r0, #16
 c001678:	f004 f900 	bl	c00587c <vTaskPlaceOnEventList>
 c00167c:	0020      	movs	r0, r4
 c00167e:	f7ff ff15 	bl	c0014ac <prvUnlockQueue>
 c001682:	f004 f80f 	bl	c0056a4 <xTaskResumeAll>
 c001686:	2800      	cmp	r0, #0
 c001688:	d1dd      	bne.n	c001646 <xQueueGenericSend+0x62>
 c00168a:	f7ff fe27 	bl	c0012dc <vPortYield>
 c00168e:	e7da      	b.n	c001646 <xQueueGenericSend+0x62>
 c001690:	54a7      	strb	r7, [r4, r2]
 c001692:	f7ff fe3d 	bl	c001310 <vPortExitCritical>
 c001696:	a901      	add	r1, sp, #4
 c001698:	a802      	add	r0, sp, #8
 c00169a:	f004 f973 	bl	c005984 <xTaskCheckForTimeOut>
 c00169e:	2800      	cmp	r0, #0
 c0016a0:	d0c4      	beq.n	c00162c <xQueueGenericSend+0x48>
 c0016a2:	0020      	movs	r0, r4
 c0016a4:	f7ff ff02 	bl	c0014ac <prvUnlockQueue>
 c0016a8:	f003 fffc 	bl	c0056a4 <xTaskResumeAll>
 c0016ac:	2000      	movs	r0, #0
 c0016ae:	e013      	b.n	c0016d8 <xQueueGenericSend+0xf4>
 c0016b0:	5567      	strb	r7, [r4, r5]
 c0016b2:	e7af      	b.n	c001614 <xQueueGenericSend+0x30>
 c0016b4:	0032      	movs	r2, r6
 c0016b6:	4641      	mov	r1, r8
 c0016b8:	0020      	movs	r0, r4
 c0016ba:	6ba5      	ldr	r5, [r4, #56]	; 0x38
 c0016bc:	f7ff fe86 	bl	c0013cc <prvCopyDataToQueue>
 c0016c0:	6ca3      	ldr	r3, [r4, #72]	; 0x48
 c0016c2:	b32b      	cbz	r3, c001710 <xQueueGenericSend+0x12c>
 c0016c4:	2e02      	cmp	r6, #2
 c0016c6:	d014      	beq.n	c0016f2 <xQueueGenericSend+0x10e>
 c0016c8:	0031      	movs	r1, r6
 c0016ca:	0020      	movs	r0, r4
 c0016cc:	f7ff feb6 	bl	c00143c <prvNotifyQueueSetContainer>
 c0016d0:	b9b8      	cbnz	r0, c001702 <xQueueGenericSend+0x11e>
 c0016d2:	f7ff fe1d 	bl	c001310 <vPortExitCritical>
 c0016d6:	2001      	movs	r0, #1
 c0016d8:	b005      	add	sp, #20
 c0016da:	bc0c      	pop	{r2, r3}
 c0016dc:	4690      	mov	r8, r2
 c0016de:	4699      	mov	r9, r3
 c0016e0:	bdf0      	pop	{r4, r5, r6, r7, pc}
 c0016e2:	2202      	movs	r2, #2
 c0016e4:	4641      	mov	r1, r8
 c0016e6:	0020      	movs	r0, r4
 c0016e8:	6ba5      	ldr	r5, [r4, #56]	; 0x38
 c0016ea:	f7ff fe6f 	bl	c0013cc <prvCopyDataToQueue>
 c0016ee:	6ca3      	ldr	r3, [r4, #72]	; 0x48
 c0016f0:	b173      	cbz	r3, c001710 <xQueueGenericSend+0x12c>
 c0016f2:	2d00      	cmp	r5, #0
 c0016f4:	d1ed      	bne.n	c0016d2 <xQueueGenericSend+0xee>
 c0016f6:	0031      	movs	r1, r6
 c0016f8:	0020      	movs	r0, r4
 c0016fa:	f7ff fe9f 	bl	c00143c <prvNotifyQueueSetContainer>
 c0016fe:	2800      	cmp	r0, #0
 c001700:	d0e7      	beq.n	c0016d2 <xQueueGenericSend+0xee>
 c001702:	f7ff fdeb 	bl	c0012dc <vPortYield>
 c001706:	e7e4      	b.n	c0016d2 <xQueueGenericSend+0xee>
 c001708:	f7ff fe02 	bl	c001310 <vPortExitCritical>
 c00170c:	2000      	movs	r0, #0
 c00170e:	e7e3      	b.n	c0016d8 <xQueueGenericSend+0xf4>
 c001710:	6a63      	ldr	r3, [r4, #36]	; 0x24
 c001712:	b913      	cbnz	r3, c00171a <xQueueGenericSend+0x136>
 c001714:	2800      	cmp	r0, #0
 c001716:	d0dc      	beq.n	c0016d2 <xQueueGenericSend+0xee>
 c001718:	e7f3      	b.n	c001702 <xQueueGenericSend+0x11e>
 c00171a:	0020      	movs	r0, r4
 c00171c:	3024      	adds	r0, #36	; 0x24
 c00171e:	f004 f8d1 	bl	c0058c4 <xTaskRemoveFromEventList>
 c001722:	2800      	cmp	r0, #0
 c001724:	d0d5      	beq.n	c0016d2 <xQueueGenericSend+0xee>
 c001726:	e7ec      	b.n	c001702 <xQueueGenericSend+0x11e>

0c001728 <xQueueGenericSendFromISR>:
 c001728:	b5f0      	push	{r4, r5, r6, r7, lr}
 c00172a:	46d6      	mov	lr, sl
 c00172c:	464f      	mov	r7, r9
 c00172e:	4646      	mov	r6, r8
 c001730:	0004      	movs	r4, r0
 c001732:	b5c0      	push	{r6, r7, lr}
 c001734:	4692      	mov	sl, r2
 c001736:	001e      	movs	r6, r3
 c001738:	4689      	mov	r9, r1
 c00173a:	f7ff fdf3 	bl	c001324 <ulSetInterruptMaskFromISR>
 c00173e:	6ba3      	ldr	r3, [r4, #56]	; 0x38
 c001740:	6be2      	ldr	r2, [r4, #60]	; 0x3c
 c001742:	0007      	movs	r7, r0
 c001744:	4293      	cmp	r3, r2
 c001746:	d30b      	bcc.n	c001760 <xQueueGenericSendFromISR+0x38>
 c001748:	2500      	movs	r5, #0
 c00174a:	2e02      	cmp	r6, #2
 c00174c:	d008      	beq.n	c001760 <xQueueGenericSendFromISR+0x38>
 c00174e:	0038      	movs	r0, r7
 c001750:	f7ff fdee 	bl	c001330 <vClearInterruptMaskFromISR>
 c001754:	0028      	movs	r0, r5
 c001756:	bc1c      	pop	{r2, r3, r4}
 c001758:	4690      	mov	r8, r2
 c00175a:	4699      	mov	r9, r3
 c00175c:	46a2      	mov	sl, r4
 c00175e:	bdf0      	pop	{r4, r5, r6, r7, pc}
 c001760:	f240 0845 	movw	r8, #69	; 0x45
 c001764:	4643      	mov	r3, r8
 c001766:	5ce5      	ldrb	r5, [r4, r3]
 c001768:	0032      	movs	r2, r6
 c00176a:	b26d      	sxtb	r5, r5
 c00176c:	4649      	mov	r1, r9
 c00176e:	0020      	movs	r0, r4
 c001770:	f7ff fe2c 	bl	c0013cc <prvCopyDataToQueue>
 c001774:	1c6b      	adds	r3, r5, #1
 c001776:	d005      	beq.n	c001784 <xQueueGenericSendFromISR+0x5c>
 c001778:	4643      	mov	r3, r8
 c00177a:	3501      	adds	r5, #1
 c00177c:	b26d      	sxtb	r5, r5
 c00177e:	54e5      	strb	r5, [r4, r3]
 c001780:	2501      	movs	r5, #1
 c001782:	e7e4      	b.n	c00174e <xQueueGenericSendFromISR+0x26>
 c001784:	6ca3      	ldr	r3, [r4, #72]	; 0x48
 c001786:	b16b      	cbz	r3, c0017a4 <xQueueGenericSendFromISR+0x7c>
 c001788:	0031      	movs	r1, r6
 c00178a:	0020      	movs	r0, r4
 c00178c:	f7ff fe56 	bl	c00143c <prvNotifyQueueSetContainer>
 c001790:	2800      	cmp	r0, #0
 c001792:	d0f5      	beq.n	c001780 <xQueueGenericSendFromISR+0x58>
 c001794:	4653      	mov	r3, sl
 c001796:	2b00      	cmp	r3, #0
 c001798:	d0f2      	beq.n	c001780 <xQueueGenericSendFromISR+0x58>
 c00179a:	2301      	movs	r3, #1
 c00179c:	4652      	mov	r2, sl
 c00179e:	2501      	movs	r5, #1
 c0017a0:	6013      	str	r3, [r2, #0]
 c0017a2:	e7d4      	b.n	c00174e <xQueueGenericSendFromISR+0x26>
 c0017a4:	6a63      	ldr	r3, [r4, #36]	; 0x24
 c0017a6:	2b00      	cmp	r3, #0
 c0017a8:	d0ea      	beq.n	c001780 <xQueueGenericSendFromISR+0x58>
 c0017aa:	0020      	movs	r0, r4
 c0017ac:	3024      	adds	r0, #36	; 0x24
 c0017ae:	f004 f889 	bl	c0058c4 <xTaskRemoveFromEventList>
 c0017b2:	2800      	cmp	r0, #0
 c0017b4:	d1ee      	bne.n	c001794 <xQueueGenericSendFromISR+0x6c>
 c0017b6:	2501      	movs	r5, #1
 c0017b8:	e7c9      	b.n	c00174e <xQueueGenericSendFromISR+0x26>
 c0017ba:	bf00      	nop

0c0017bc <xQueueGiveFromISR>:
 c0017bc:	b5f8      	push	{r3, r4, r5, r6, r7, lr}
 c0017be:	0004      	movs	r4, r0
 c0017c0:	000f      	movs	r7, r1
 c0017c2:	f7ff fdaf 	bl	c001324 <ulSetInterruptMaskFromISR>
 c0017c6:	6ba2      	ldr	r2, [r4, #56]	; 0x38
 c0017c8:	6be3      	ldr	r3, [r4, #60]	; 0x3c
 c0017ca:	0005      	movs	r5, r0
 c0017cc:	2600      	movs	r6, #0
 c0017ce:	429a      	cmp	r2, r3
 c0017d0:	d20a      	bcs.n	c0017e8 <xQueueGiveFromISR+0x2c>
 c0017d2:	2145      	movs	r1, #69	; 0x45
 c0017d4:	5c63      	ldrb	r3, [r4, r1]
 c0017d6:	3201      	adds	r2, #1
 c0017d8:	b25b      	sxtb	r3, r3
 c0017da:	63a2      	str	r2, [r4, #56]	; 0x38
 c0017dc:	1c5a      	adds	r2, r3, #1
 c0017de:	d008      	beq.n	c0017f2 <xQueueGiveFromISR+0x36>
 c0017e0:	3301      	adds	r3, #1
 c0017e2:	b25b      	sxtb	r3, r3
 c0017e4:	5463      	strb	r3, [r4, r1]
 c0017e6:	2601      	movs	r6, #1
 c0017e8:	0028      	movs	r0, r5
 c0017ea:	f7ff fda1 	bl	c001330 <vClearInterruptMaskFromISR>
 c0017ee:	0030      	movs	r0, r6
 c0017f0:	bdf8      	pop	{r3, r4, r5, r6, r7, pc}
 c0017f2:	6ca3      	ldr	r3, [r4, #72]	; 0x48
 c0017f4:	b15b      	cbz	r3, c00180e <xQueueGiveFromISR+0x52>
 c0017f6:	2100      	movs	r1, #0
 c0017f8:	0020      	movs	r0, r4
 c0017fa:	f7ff fe1f 	bl	c00143c <prvNotifyQueueSetContainer>
 c0017fe:	2800      	cmp	r0, #0
 c001800:	d0f1      	beq.n	c0017e6 <xQueueGiveFromISR+0x2a>
 c001802:	2f00      	cmp	r7, #0
 c001804:	d0ef      	beq.n	c0017e6 <xQueueGiveFromISR+0x2a>
 c001806:	2301      	movs	r3, #1
 c001808:	2601      	movs	r6, #1
 c00180a:	603b      	str	r3, [r7, #0]
 c00180c:	e7ec      	b.n	c0017e8 <xQueueGiveFromISR+0x2c>
 c00180e:	6a63      	ldr	r3, [r4, #36]	; 0x24
 c001810:	2b00      	cmp	r3, #0
 c001812:	d0e8      	beq.n	c0017e6 <xQueueGiveFromISR+0x2a>
 c001814:	0020      	movs	r0, r4
 c001816:	3024      	adds	r0, #36	; 0x24
 c001818:	f004 f854 	bl	c0058c4 <xTaskRemoveFromEventList>
 c00181c:	2800      	cmp	r0, #0
 c00181e:	d0e2      	beq.n	c0017e6 <xQueueGiveFromISR+0x2a>
 c001820:	2f00      	cmp	r7, #0
 c001822:	d0e0      	beq.n	c0017e6 <xQueueGiveFromISR+0x2a>
 c001824:	e7ef      	b.n	c001806 <xQueueGiveFromISR+0x4a>
 c001826:	bf00      	nop

0c001828 <xQueueReceive>:
 c001828:	b5f0      	push	{r4, r5, r6, r7, lr}
 c00182a:	46ce      	mov	lr, r9
 c00182c:	4647      	mov	r7, r8
 c00182e:	b580      	push	{r7, lr}
 c001830:	b085      	sub	sp, #20
 c001832:	0004      	movs	r4, r0
 c001834:	4688      	mov	r8, r1
 c001836:	9201      	str	r2, [sp, #4]
 c001838:	f240 0900 	movw	r9, #0
 c00183c:	2544      	movs	r5, #68	; 0x44
 c00183e:	2600      	movs	r6, #0
 c001840:	e014      	b.n	c00186c <xQueueReceive+0x44>
 c001842:	f7ff fd57 	bl	c0012f4 <vPortEnterCritical>
 c001846:	6ba3      	ldr	r3, [r4, #56]	; 0x38
 c001848:	2b00      	cmp	r3, #0
 c00184a:	d143      	bne.n	c0018d4 <xQueueReceive+0xac>
 c00184c:	f7ff fd60 	bl	c001310 <vPortExitCritical>
 c001850:	0020      	movs	r0, r4
 c001852:	9901      	ldr	r1, [sp, #4]
 c001854:	3024      	adds	r0, #36	; 0x24
 c001856:	f004 f811 	bl	c00587c <vTaskPlaceOnEventList>
 c00185a:	0020      	movs	r0, r4
 c00185c:	f7ff fe26 	bl	c0014ac <prvUnlockQueue>
 c001860:	f003 ff20 	bl	c0056a4 <xTaskResumeAll>
 c001864:	2800      	cmp	r0, #0
 c001866:	d045      	beq.n	c0018f4 <xQueueReceive+0xcc>
 c001868:	f240 0901 	movw	r9, #1
 c00186c:	f7ff fd42 	bl	c0012f4 <vPortEnterCritical>
 c001870:	6ba7      	ldr	r7, [r4, #56]	; 0x38
 c001872:	2f00      	cmp	r7, #0
 c001874:	d141      	bne.n	c0018fa <xQueueReceive+0xd2>
 c001876:	9b01      	ldr	r3, [sp, #4]
 c001878:	b3a3      	cbz	r3, c0018e4 <xQueueReceive+0xbc>
 c00187a:	464b      	mov	r3, r9
 c00187c:	b313      	cbz	r3, c0018c4 <xQueueReceive+0x9c>
 c00187e:	f7ff fd47 	bl	c001310 <vPortExitCritical>
 c001882:	f003 fe3f 	bl	c005504 <vTaskSuspendAll>
 c001886:	f7ff fd35 	bl	c0012f4 <vPortEnterCritical>
 c00188a:	5d63      	ldrb	r3, [r4, r5]
 c00188c:	b25b      	sxtb	r3, r3
 c00188e:	3301      	adds	r3, #1
 c001890:	d01e      	beq.n	c0018d0 <xQueueReceive+0xa8>
 c001892:	2245      	movs	r2, #69	; 0x45
 c001894:	5ca3      	ldrb	r3, [r4, r2]
 c001896:	b25b      	sxtb	r3, r3
 c001898:	3301      	adds	r3, #1
 c00189a:	d017      	beq.n	c0018cc <xQueueReceive+0xa4>
 c00189c:	f7ff fd38 	bl	c001310 <vPortExitCritical>
 c0018a0:	a901      	add	r1, sp, #4
 c0018a2:	a802      	add	r0, sp, #8
 c0018a4:	f004 f86e 	bl	c005984 <xTaskCheckForTimeOut>
 c0018a8:	2800      	cmp	r0, #0
 c0018aa:	d0ca      	beq.n	c001842 <xQueueReceive+0x1a>
 c0018ac:	0020      	movs	r0, r4
 c0018ae:	f7ff fdfd 	bl	c0014ac <prvUnlockQueue>
 c0018b2:	f003 fef7 	bl	c0056a4 <xTaskResumeAll>
 c0018b6:	f7ff fd1d 	bl	c0012f4 <vPortEnterCritical>
 c0018ba:	6ba3      	ldr	r3, [r4, #56]	; 0x38
 c0018bc:	b193      	cbz	r3, c0018e4 <xQueueReceive+0xbc>
 c0018be:	f7ff fd27 	bl	c001310 <vPortExitCritical>
 c0018c2:	e7d1      	b.n	c001868 <xQueueReceive+0x40>
 c0018c4:	a802      	add	r0, sp, #8
 c0018c6:	f004 f84f 	bl	c005968 <vTaskInternalSetTimeOutState>
 c0018ca:	e7d8      	b.n	c00187e <xQueueReceive+0x56>
 c0018cc:	54a6      	strb	r6, [r4, r2]
 c0018ce:	e7e5      	b.n	c00189c <xQueueReceive+0x74>
 c0018d0:	5566      	strb	r6, [r4, r5]
 c0018d2:	e7de      	b.n	c001892 <xQueueReceive+0x6a>
 c0018d4:	f7ff fd1c 	bl	c001310 <vPortExitCritical>
 c0018d8:	0020      	movs	r0, r4
 c0018da:	f7ff fde7 	bl	c0014ac <prvUnlockQueue>
 c0018de:	f003 fee1 	bl	c0056a4 <xTaskResumeAll>
 c0018e2:	e7c1      	b.n	c001868 <xQueueReceive+0x40>
 c0018e4:	f7ff fd14 	bl	c001310 <vPortExitCritical>
 c0018e8:	2000      	movs	r0, #0
 c0018ea:	b005      	add	sp, #20
 c0018ec:	bc0c      	pop	{r2, r3}
 c0018ee:	4690      	mov	r8, r2
 c0018f0:	4699      	mov	r9, r3
 c0018f2:	bdf0      	pop	{r4, r5, r6, r7, pc}
 c0018f4:	f7ff fcf2 	bl	c0012dc <vPortYield>
 c0018f8:	e7b6      	b.n	c001868 <xQueueReceive+0x40>
 c0018fa:	4641      	mov	r1, r8
 c0018fc:	0020      	movs	r0, r4
 c0018fe:	f7ff fdc3 	bl	c001488 <prvCopyDataFromQueue>
 c001902:	1e7b      	subs	r3, r7, #1
 c001904:	63a3      	str	r3, [r4, #56]	; 0x38
 c001906:	6923      	ldr	r3, [r4, #16]
 c001908:	b91b      	cbnz	r3, c001912 <xQueueReceive+0xea>
 c00190a:	f7ff fd01 	bl	c001310 <vPortExitCritical>
 c00190e:	2001      	movs	r0, #1
 c001910:	e7eb      	b.n	c0018ea <xQueueReceive+0xc2>
 c001912:	0020      	movs	r0, r4
 c001914:	3010      	adds	r0, #16
 c001916:	f003 ffd5 	bl	c0058c4 <xTaskRemoveFromEventList>
 c00191a:	2800      	cmp	r0, #0
 c00191c:	d0f5      	beq.n	c00190a <xQueueReceive+0xe2>
 c00191e:	f7ff fcdd 	bl	c0012dc <vPortYield>
 c001922:	e7f2      	b.n	c00190a <xQueueReceive+0xe2>

0c001924 <xQueueSemaphoreTake>:
 c001924:	b5f0      	push	{r4, r5, r6, r7, lr}
 c001926:	46c6      	mov	lr, r8
 c001928:	0004      	movs	r4, r0
 c00192a:	b500      	push	{lr}
 c00192c:	b084      	sub	sp, #16
 c00192e:	9101      	str	r1, [sp, #4]
 c001930:	f7ff fce0 	bl	c0012f4 <vPortEnterCritical>
 c001934:	6ba3      	ldr	r3, [r4, #56]	; 0x38
 c001936:	f240 0800 	movw	r8, #0
 c00193a:	2700      	movs	r7, #0
 c00193c:	2544      	movs	r5, #68	; 0x44
 c00193e:	2600      	movs	r6, #0
 c001940:	bb63      	cbnz	r3, c00199c <xQueueSemaphoreTake+0x78>
 c001942:	9b01      	ldr	r3, [sp, #4]
 c001944:	2b00      	cmp	r3, #0
 c001946:	d100      	bne.n	c00194a <xQueueSemaphoreTake+0x26>
 c001948:	e077      	b.n	c001a3a <xQueueSemaphoreTake+0x116>
 c00194a:	2f00      	cmp	r7, #0
 c00194c:	d058      	beq.n	c001a00 <xQueueSemaphoreTake+0xdc>
 c00194e:	f7ff fcdf 	bl	c001310 <vPortExitCritical>
 c001952:	f003 fdd7 	bl	c005504 <vTaskSuspendAll>
 c001956:	f7ff fccd 	bl	c0012f4 <vPortEnterCritical>
 c00195a:	5d63      	ldrb	r3, [r4, r5]
 c00195c:	b25b      	sxtb	r3, r3
 c00195e:	3301      	adds	r3, #1
 c001960:	d052      	beq.n	c001a08 <xQueueSemaphoreTake+0xe4>
 c001962:	2245      	movs	r2, #69	; 0x45
 c001964:	5ca3      	ldrb	r3, [r4, r2]
 c001966:	b25b      	sxtb	r3, r3
 c001968:	3301      	adds	r3, #1
 c00196a:	d053      	beq.n	c001a14 <xQueueSemaphoreTake+0xf0>
 c00196c:	f7ff fcd0 	bl	c001310 <vPortExitCritical>
 c001970:	a901      	add	r1, sp, #4
 c001972:	a802      	add	r0, sp, #8
 c001974:	f004 f806 	bl	c005984 <xTaskCheckForTimeOut>
 c001978:	bb08      	cbnz	r0, c0019be <xQueueSemaphoreTake+0x9a>
 c00197a:	f7ff fcbb 	bl	c0012f4 <vPortEnterCritical>
 c00197e:	6ba3      	ldr	r3, [r4, #56]	; 0x38
 c001980:	b353      	cbz	r3, c0019d8 <xQueueSemaphoreTake+0xb4>
 c001982:	f7ff fcc5 	bl	c001310 <vPortExitCritical>
 c001986:	0020      	movs	r0, r4
 c001988:	f7ff fd90 	bl	c0014ac <prvUnlockQueue>
 c00198c:	f003 fe8a 	bl	c0056a4 <xTaskResumeAll>
 c001990:	2701      	movs	r7, #1
 c001992:	f7ff fcaf 	bl	c0012f4 <vPortEnterCritical>
 c001996:	6ba3      	ldr	r3, [r4, #56]	; 0x38
 c001998:	2b00      	cmp	r3, #0
 c00199a:	d0d2      	beq.n	c001942 <xQueueSemaphoreTake+0x1e>
 c00199c:	3b01      	subs	r3, #1
 c00199e:	63a3      	str	r3, [r4, #56]	; 0x38
 c0019a0:	6823      	ldr	r3, [r4, #0]
 c0019a2:	2b00      	cmp	r3, #0
 c0019a4:	d060      	beq.n	c001a68 <xQueueSemaphoreTake+0x144>
 c0019a6:	6923      	ldr	r3, [r4, #16]
 c0019a8:	2b00      	cmp	r3, #0
 c0019aa:	d154      	bne.n	c001a56 <xQueueSemaphoreTake+0x132>
 c0019ac:	f7ff fcb0 	bl	c001310 <vPortExitCritical>
 c0019b0:	f240 0801 	movw	r8, #1
 c0019b4:	4640      	mov	r0, r8
 c0019b6:	b004      	add	sp, #16
 c0019b8:	bc04      	pop	{r2}
 c0019ba:	4690      	mov	r8, r2
 c0019bc:	bdf0      	pop	{r4, r5, r6, r7, pc}
 c0019be:	0020      	movs	r0, r4
 c0019c0:	f7ff fd74 	bl	c0014ac <prvUnlockQueue>
 c0019c4:	f003 fe6e 	bl	c0056a4 <xTaskResumeAll>
 c0019c8:	f7ff fc94 	bl	c0012f4 <vPortEnterCritical>
 c0019cc:	6ba3      	ldr	r3, [r4, #56]	; 0x38
 c0019ce:	b31b      	cbz	r3, c001a18 <xQueueSemaphoreTake+0xf4>
 c0019d0:	f7ff fc9e 	bl	c001310 <vPortExitCritical>
 c0019d4:	2701      	movs	r7, #1
 c0019d6:	e7dc      	b.n	c001992 <xQueueSemaphoreTake+0x6e>
 c0019d8:	f7ff fc9a 	bl	c001310 <vPortExitCritical>
 c0019dc:	6823      	ldr	r3, [r4, #0]
 c0019de:	b38b      	cbz	r3, c001a44 <xQueueSemaphoreTake+0x120>
 c0019e0:	0020      	movs	r0, r4
 c0019e2:	9901      	ldr	r1, [sp, #4]
 c0019e4:	3024      	adds	r0, #36	; 0x24
 c0019e6:	f003 ff49 	bl	c00587c <vTaskPlaceOnEventList>
 c0019ea:	0020      	movs	r0, r4
 c0019ec:	f7ff fd5e 	bl	c0014ac <prvUnlockQueue>
 c0019f0:	f003 fe58 	bl	c0056a4 <xTaskResumeAll>
 c0019f4:	2800      	cmp	r0, #0
 c0019f6:	d1cb      	bne.n	c001990 <xQueueSemaphoreTake+0x6c>
 c0019f8:	f7ff fc70 	bl	c0012dc <vPortYield>
 c0019fc:	2701      	movs	r7, #1
 c0019fe:	e7c8      	b.n	c001992 <xQueueSemaphoreTake+0x6e>
 c001a00:	a802      	add	r0, sp, #8
 c001a02:	f003 ffb1 	bl	c005968 <vTaskInternalSetTimeOutState>
 c001a06:	e7a2      	b.n	c00194e <xQueueSemaphoreTake+0x2a>
 c001a08:	2245      	movs	r2, #69	; 0x45
 c001a0a:	5566      	strb	r6, [r4, r5]
 c001a0c:	5ca3      	ldrb	r3, [r4, r2]
 c001a0e:	b25b      	sxtb	r3, r3
 c001a10:	3301      	adds	r3, #1
 c001a12:	d1ab      	bne.n	c00196c <xQueueSemaphoreTake+0x48>
 c001a14:	54a6      	strb	r6, [r4, r2]
 c001a16:	e7a9      	b.n	c00196c <xQueueSemaphoreTake+0x48>
 c001a18:	f7ff fc7a 	bl	c001310 <vPortExitCritical>
 c001a1c:	4643      	mov	r3, r8
 c001a1e:	2b00      	cmp	r3, #0
 c001a20:	d0c8      	beq.n	c0019b4 <xQueueSemaphoreTake+0x90>
 c001a22:	f7ff fc67 	bl	c0012f4 <vPortEnterCritical>
 c001a26:	6a63      	ldr	r3, [r4, #36]	; 0x24
 c001a28:	2100      	movs	r1, #0
 c001a2a:	b11b      	cbz	r3, c001a34 <xQueueSemaphoreTake+0x110>
 c001a2c:	6b23      	ldr	r3, [r4, #48]	; 0x30
 c001a2e:	310b      	adds	r1, #11
 c001a30:	681b      	ldr	r3, [r3, #0]
 c001a32:	1ac9      	subs	r1, r1, r3
 c001a34:	68a0      	ldr	r0, [r4, #8]
 c001a36:	f004 f887 	bl	c005b48 <vTaskPriorityDisinheritAfterTimeout>
 c001a3a:	f7ff fc69 	bl	c001310 <vPortExitCritical>
 c001a3e:	f240 0800 	movw	r8, #0
 c001a42:	e7b7      	b.n	c0019b4 <xQueueSemaphoreTake+0x90>
 c001a44:	f7ff fc56 	bl	c0012f4 <vPortEnterCritical>
 c001a48:	68a0      	ldr	r0, [r4, #8]
 c001a4a:	f004 f805 	bl	c005a58 <xTaskPriorityInherit>
 c001a4e:	4680      	mov	r8, r0
 c001a50:	f7ff fc5e 	bl	c001310 <vPortExitCritical>
 c001a54:	e7c4      	b.n	c0019e0 <xQueueSemaphoreTake+0xbc>
 c001a56:	0020      	movs	r0, r4
 c001a58:	3010      	adds	r0, #16
 c001a5a:	f003 ff33 	bl	c0058c4 <xTaskRemoveFromEventList>
 c001a5e:	2800      	cmp	r0, #0
 c001a60:	d0a4      	beq.n	c0019ac <xQueueSemaphoreTake+0x88>
 c001a62:	f7ff fc3b 	bl	c0012dc <vPortYield>
 c001a66:	e7a1      	b.n	c0019ac <xQueueSemaphoreTake+0x88>
 c001a68:	f004 f8aa 	bl	c005bc0 <pvTaskIncrementMutexHeldCount>
 c001a6c:	60a0      	str	r0, [r4, #8]
 c001a6e:	e79a      	b.n	c0019a6 <xQueueSemaphoreTake+0x82>

0c001a70 <vQueueWaitForMessageRestricted>:
 c001a70:	b570      	push	{r4, r5, r6, lr}
 c001a72:	0004      	movs	r4, r0
 c001a74:	0016      	movs	r6, r2
 c001a76:	000d      	movs	r5, r1
 c001a78:	f7ff fc3c 	bl	c0012f4 <vPortEnterCritical>
 c001a7c:	2244      	movs	r2, #68	; 0x44
 c001a7e:	5ca3      	ldrb	r3, [r4, r2]
 c001a80:	b25b      	sxtb	r3, r3
 c001a82:	3301      	adds	r3, #1
 c001a84:	d015      	beq.n	c001ab2 <vQueueWaitForMessageRestricted+0x42>
 c001a86:	2245      	movs	r2, #69	; 0x45
 c001a88:	5ca3      	ldrb	r3, [r4, r2]
 c001a8a:	b25b      	sxtb	r3, r3
 c001a8c:	3301      	adds	r3, #1
 c001a8e:	d00d      	beq.n	c001aac <vQueueWaitForMessageRestricted+0x3c>
 c001a90:	f7ff fc3e 	bl	c001310 <vPortExitCritical>
 c001a94:	6ba3      	ldr	r3, [r4, #56]	; 0x38
 c001a96:	b92b      	cbnz	r3, c001aa4 <vQueueWaitForMessageRestricted+0x34>
 c001a98:	0020      	movs	r0, r4
 c001a9a:	0032      	movs	r2, r6
 c001a9c:	0029      	movs	r1, r5
 c001a9e:	3024      	adds	r0, #36	; 0x24
 c001aa0:	f003 fefc 	bl	c00589c <vTaskPlaceOnEventListRestricted>
 c001aa4:	0020      	movs	r0, r4
 c001aa6:	f7ff fd01 	bl	c0014ac <prvUnlockQueue>
 c001aaa:	bd70      	pop	{r4, r5, r6, pc}
 c001aac:	2300      	movs	r3, #0
 c001aae:	54a3      	strb	r3, [r4, r2]
 c001ab0:	e7ee      	b.n	c001a90 <vQueueWaitForMessageRestricted+0x20>
 c001ab2:	2300      	movs	r3, #0
 c001ab4:	54a3      	strb	r3, [r4, r2]
 c001ab6:	e7e6      	b.n	c001a86 <vQueueWaitForMessageRestricted+0x16>

0c001ab8 <ADC_StructInit>:
 c001ab8:	2207      	movs	r2, #7
 c001aba:	2300      	movs	r3, #0
 c001abc:	7502      	strb	r2, [r0, #20]
 c001abe:	3203      	adds	r2, #3
 c001ac0:	7042      	strb	r2, [r0, #1]
 c001ac2:	32f5      	adds	r2, #245	; 0xf5
 c001ac4:	7003      	strb	r3, [r0, #0]
 c001ac6:	7483      	strb	r3, [r0, #18]
 c001ac8:	74c3      	strb	r3, [r0, #19]
 c001aca:	6183      	str	r3, [r0, #24]
 c001acc:	7542      	strb	r2, [r0, #21]
 c001ace:	7703      	strb	r3, [r0, #28]
 c001ad0:	3002      	adds	r0, #2
 c001ad2:	7003      	strb	r3, [r0, #0]
 c001ad4:	3301      	adds	r3, #1
 c001ad6:	b2db      	uxtb	r3, r3
 c001ad8:	3001      	adds	r0, #1
 c001ada:	2b0b      	cmp	r3, #11
 c001adc:	d1f9      	bne.n	c001ad2 <ADC_StructInit+0x1a>
 c001ade:	4770      	bx	lr

0c001ae0 <ADC_Init>:
 c001ae0:	b570      	push	{r4, r5, r6, lr}
 c001ae2:	7803      	ldrb	r3, [r0, #0]
 c001ae4:	b082      	sub	sp, #8
 c001ae6:	0004      	movs	r4, r0
 c001ae8:	2b03      	cmp	r3, #3
 c001aea:	d900      	bls.n	c001aee <ADC_Init+0xe>
 c001aec:	e0af      	b.n	c001c4e <ADC_Init+0x16e>
 c001aee:	7ca3      	ldrb	r3, [r4, #18]
 c001af0:	2b03      	cmp	r3, #3
 c001af2:	d900      	bls.n	c001af6 <ADC_Init+0x16>
 c001af4:	e0a3      	b.n	c001c3e <ADC_Init+0x15e>
 c001af6:	7863      	ldrb	r3, [r4, #1]
 c001af8:	2b0f      	cmp	r3, #15
 c001afa:	d900      	bls.n	c001afe <ADC_Init+0x1e>
 c001afc:	e097      	b.n	c001c2e <ADC_Init+0x14e>
 c001afe:	466b      	mov	r3, sp
 c001b00:	f241 569d 	movw	r6, #5533	; 0x159d
 c001b04:	1ddd      	adds	r5, r3, #7
 c001b06:	002a      	movs	r2, r5
 c001b08:	2307      	movs	r3, #7
 c001b0a:	f240 11f0 	movw	r1, #496	; 0x1f0
 c001b0e:	2000      	movs	r0, #0
 c001b10:	f2c0 0600 	movt	r6, #0
 c001b14:	47b0      	blx	r6
 c001b16:	2303      	movs	r3, #3
 c001b18:	782a      	ldrb	r2, [r5, #0]
 c001b1a:	4013      	ands	r3, r2
 c001b1c:	702b      	strb	r3, [r5, #0]
 c001b1e:	2b02      	cmp	r3, #2
 c001b20:	d100      	bne.n	c001b24 <ADC_Init+0x44>
 c001b22:	e09c      	b.n	c001c5e <ADC_Init+0x17e>
 c001b24:	f24c 0300 	movw	r3, #49152	; 0xc000
 c001b28:	f240 4104 	movw	r1, #1028	; 0x404
 c001b2c:	20c0      	movs	r0, #192	; 0xc0
 c001b2e:	f6c4 0301 	movt	r3, #18433	; 0x4801
 c001b32:	585a      	ldr	r2, [r3, r1]
 c001b34:	4382      	bics	r2, r0
 c001b36:	505a      	str	r2, [r3, r1]
 c001b38:	3904      	subs	r1, #4
 c001b3a:	585a      	ldr	r2, [r3, r1]
 c001b3c:	4853      	ldr	r0, [pc, #332]	; (c001c8c <ADC_Init+0x1ac>)
 c001b3e:	4002      	ands	r2, r0
 c001b40:	430a      	orrs	r2, r1
 c001b42:	505a      	str	r2, [r3, r1]
 c001b44:	f64c 0300 	movw	r3, #51200	; 0xc800
 c001b48:	f6c4 0301 	movt	r3, #18433	; 0x4801
 c001b4c:	681a      	ldr	r2, [r3, #0]
 c001b4e:	4950      	ldr	r1, [pc, #320]	; (c001c90 <ADC_Init+0x1b0>)
 c001b50:	f64f 75ff 	movw	r5, #65535	; 0xffff
 c001b54:	400a      	ands	r2, r1
 c001b56:	601a      	str	r2, [r3, #0]
 c001b58:	2100      	movs	r1, #0
 c001b5a:	22a8      	movs	r2, #168	; 0xa8
 c001b5c:	2001      	movs	r0, #1
 c001b5e:	f2c0 0507 	movt	r5, #7
 c001b62:	5098      	str	r0, [r3, r2]
 c001b64:	5099      	str	r1, [r3, r2]
 c001b66:	6599      	str	r1, [r3, #88]	; 0x58
 c001b68:	661d      	str	r5, [r3, #96]	; 0x60
 c001b6a:	5098      	str	r0, [r3, r2]
 c001b6c:	5099      	str	r1, [r3, r2]
 c001b6e:	7ca1      	ldrb	r1, [r4, #18]
 c001b70:	3aa1      	subs	r2, #161	; 0xa1
 c001b72:	400a      	ands	r2, r1
 c001b74:	21ac      	movs	r1, #172	; 0xac
 c001b76:	505a      	str	r2, [r3, r1]
 c001b78:	681a      	ldr	r2, [r3, #0]
 c001b7a:	3152      	adds	r1, #82	; 0x52
 c001b7c:	438a      	bics	r2, r1
 c001b7e:	0011      	movs	r1, r2
 c001b80:	7865      	ldrb	r5, [r4, #1]
 c001b82:	7822      	ldrb	r2, [r4, #0]
 c001b84:	0128      	lsls	r0, r5, #4
 c001b86:	0052      	lsls	r2, r2, #1
 c001b88:	4302      	orrs	r2, r0
 c001b8a:	430a      	orrs	r2, r1
 c001b8c:	601a      	str	r2, [r3, #0]
 c001b8e:	69a2      	ldr	r2, [r4, #24]
 c001b90:	605a      	str	r2, [r3, #4]
 c001b92:	2d07      	cmp	r5, #7
 c001b94:	dc49      	bgt.n	c001c2a <ADC_Init+0x14a>
 c001b96:	1c6e      	adds	r6, r5, #1
 c001b98:	b2f6      	uxtb	r6, r6
 c001b9a:	2e00      	cmp	r6, #0
 c001b9c:	d100      	bne.n	c001ba0 <ADC_Init+0xc0>
 c001b9e:	e071      	b.n	c001c84 <ADC_Init+0x1a4>
 c001ba0:	2300      	movs	r3, #0
 c001ba2:	2100      	movs	r1, #0
 c001ba4:	18e2      	adds	r2, r4, r3
 c001ba6:	7892      	ldrb	r2, [r2, #2]
 c001ba8:	0098      	lsls	r0, r3, #2
 c001baa:	4082      	lsls	r2, r0
 c001bac:	3301      	adds	r3, #1
 c001bae:	4311      	orrs	r1, r2
 c001bb0:	b2da      	uxtb	r2, r3
 c001bb2:	4296      	cmp	r6, r2
 c001bb4:	d8f6      	bhi.n	c001ba4 <ADC_Init+0xc4>
 c001bb6:	f64c 0300 	movw	r3, #51200	; 0xc800
 c001bba:	f6c4 0301 	movt	r3, #18433	; 0x4801
 c001bbe:	63d9      	str	r1, [r3, #60]	; 0x3c
 c001bc0:	2000      	movs	r0, #0
 c001bc2:	2d07      	cmp	r5, #7
 c001bc4:	dd0c      	ble.n	c001be0 <ADC_Init+0x100>
 c001bc6:	2308      	movs	r3, #8
 c001bc8:	2208      	movs	r2, #8
 c001bca:	18e1      	adds	r1, r4, r3
 c001bcc:	7889      	ldrb	r1, [r1, #2]
 c001bce:	3b08      	subs	r3, #8
 c001bd0:	009b      	lsls	r3, r3, #2
 c001bd2:	4099      	lsls	r1, r3
 c001bd4:	3201      	adds	r2, #1
 c001bd6:	b2d2      	uxtb	r2, r2
 c001bd8:	4308      	orrs	r0, r1
 c001bda:	0013      	movs	r3, r2
 c001bdc:	4295      	cmp	r5, r2
 c001bde:	daf4      	bge.n	c001bca <ADC_Init+0xea>
 c001be0:	f64c 0300 	movw	r3, #51200	; 0xc800
 c001be4:	f6c4 0301 	movt	r3, #18433	; 0x4801
 c001be8:	6418      	str	r0, [r3, #64]	; 0x40
 c001bea:	7d62      	ldrb	r2, [r4, #21]
 c001bec:	2a0a      	cmp	r2, #10
 c001bee:	d804      	bhi.n	c001bfa <ADC_Init+0x11a>
 c001bf0:	2004      	movs	r0, #4
 c001bf2:	6d99      	ldr	r1, [r3, #88]	; 0x58
 c001bf4:	4301      	orrs	r1, r0
 c001bf6:	6599      	str	r1, [r3, #88]	; 0x58
 c001bf8:	665a      	str	r2, [r3, #100]	; 0x64
 c001bfa:	f64c 0300 	movw	r3, #51200	; 0xc800
 c001bfe:	20a0      	movs	r0, #160	; 0xa0
 c001c00:	7ce2      	ldrb	r2, [r4, #19]
 c001c02:	f6c4 0301 	movt	r3, #18433	; 0x4801
 c001c06:	669a      	str	r2, [r3, #104]	; 0x68
 c001c08:	581a      	ldr	r2, [r3, r0]
 c001c0a:	4922      	ldr	r1, [pc, #136]	; (c001c94 <ADC_Init+0x1b4>)
 c001c0c:	4011      	ands	r1, r2
 c001c0e:	7d22      	ldrb	r2, [r4, #20]
 c001c10:	0212      	lsls	r2, r2, #8
 c001c12:	430a      	orrs	r2, r1
 c001c14:	501a      	str	r2, [r3, r0]
 c001c16:	7f22      	ldrb	r2, [r4, #28]
 c001c18:	b12a      	cbz	r2, c001c26 <ADC_Init+0x146>
 c001c1a:	21b0      	movs	r1, #176	; 0xb0
 c001c1c:	2280      	movs	r2, #128	; 0x80
 c001c1e:	5858      	ldr	r0, [r3, r1]
 c001c20:	0612      	lsls	r2, r2, #24
 c001c22:	4302      	orrs	r2, r0
 c001c24:	505a      	str	r2, [r3, r1]
 c001c26:	b002      	add	sp, #8
 c001c28:	bd70      	pop	{r4, r5, r6, pc}
 c001c2a:	2608      	movs	r6, #8
 c001c2c:	e7b8      	b.n	c001ba0 <ADC_Init+0xc0>
 c001c2e:	f644 00c4 	movw	r0, #18628	; 0x48c4
 c001c32:	2143      	movs	r1, #67	; 0x43
 c001c34:	f6c0 4001 	movt	r0, #3073	; 0xc01
 c001c38:	f012 f81a 	bl	c013c70 <__io_assert_failed_veneer>
 c001c3c:	e75f      	b.n	c001afe <ADC_Init+0x1e>
 c001c3e:	f644 00c4 	movw	r0, #18628	; 0x48c4
 c001c42:	2142      	movs	r1, #66	; 0x42
 c001c44:	f6c0 4001 	movt	r0, #3073	; 0xc01
 c001c48:	f012 f812 	bl	c013c70 <__io_assert_failed_veneer>
 c001c4c:	e753      	b.n	c001af6 <ADC_Init+0x16>
 c001c4e:	f644 00c4 	movw	r0, #18628	; 0x48c4
 c001c52:	2141      	movs	r1, #65	; 0x41
 c001c54:	f6c0 4001 	movt	r0, #3073	; 0xc01
 c001c58:	f012 f80a 	bl	c013c70 <__io_assert_failed_veneer>
 c001c5c:	e747      	b.n	c001aee <ADC_Init+0xe>
 c001c5e:	f24c 0300 	movw	r3, #49152	; 0xc000
 c001c62:	f240 4104 	movw	r1, #1028	; 0x404
 c001c66:	20c0      	movs	r0, #192	; 0xc0
 c001c68:	f6c4 0301 	movt	r3, #18433	; 0x4801
 c001c6c:	585a      	ldr	r2, [r3, r1]
 c001c6e:	4382      	bics	r2, r0
 c001c70:	505a      	str	r2, [r3, r1]
 c001c72:	3904      	subs	r1, #4
 c001c74:	585a      	ldr	r2, [r3, r1]
 c001c76:	4806      	ldr	r0, [pc, #24]	; (c001c90 <ADC_Init+0x1b0>)
 c001c78:	4002      	ands	r2, r0
 c001c7a:	f240 5000 	movw	r0, #1280	; 0x500
 c001c7e:	4302      	orrs	r2, r0
 c001c80:	505a      	str	r2, [r3, r1]
 c001c82:	e75f      	b.n	c001b44 <ADC_Init+0x64>
 c001c84:	63de      	str	r6, [r3, #60]	; 0x3c
 c001c86:	2000      	movs	r0, #0
 c001c88:	e7aa      	b.n	c001be0 <ADC_Init+0x100>
 c001c8a:	bf00      	nop
 c001c8c:	fffffcff 	.word	0xfffffcff
 c001c90:	fffffdff 	.word	0xfffffdff
 c001c94:	fffff0ff 	.word	0xfffff0ff

0c001c98 <ADC_Cmd>:
 c001c98:	f64c 0300 	movw	r3, #51200	; 0xc800
 c001c9c:	f6c4 0301 	movt	r3, #18433	; 0x4801
 c001ca0:	681a      	ldr	r2, [r3, #0]
 c001ca2:	b938      	cbnz	r0, c001cb4 <ADC_Cmd+0x1c>
 c001ca4:	4906      	ldr	r1, [pc, #24]	; (c001cc0 <ADC_Cmd+0x28>)
 c001ca6:	400a      	ands	r2, r1
 c001ca8:	601a      	str	r2, [r3, #0]
 c001caa:	2101      	movs	r1, #1
 c001cac:	22a8      	movs	r2, #168	; 0xa8
 c001cae:	5099      	str	r1, [r3, r2]
 c001cb0:	5098      	str	r0, [r3, r2]
 c001cb2:	4770      	bx	lr
 c001cb4:	f240 2100 	movw	r1, #512	; 0x200
 c001cb8:	430a      	orrs	r2, r1
 c001cba:	601a      	str	r2, [r3, #0]
 c001cbc:	e7f9      	b.n	c001cb2 <ADC_Cmd+0x1a>
 c001cbe:	bf00      	nop
 c001cc0:	fffffdff 	.word	0xfffffdff

0c001cc4 <ADC_INTClear>:
 c001cc4:	f64c 0300 	movw	r3, #51200	; 0xc800
 c001cc8:	f64f 72ff 	movw	r2, #65535	; 0xffff
 c001ccc:	f6c4 0301 	movt	r3, #18433	; 0x4801
 c001cd0:	f2c0 0207 	movt	r2, #7
 c001cd4:	661a      	str	r2, [r3, #96]	; 0x60
 c001cd6:	4770      	bx	lr

0c001cd8 <ADC_Readable>:
 c001cd8:	f64c 0300 	movw	r3, #51200	; 0xc800
 c001cdc:	2001      	movs	r0, #1
 c001cde:	f6c4 0301 	movt	r3, #18433	; 0x4801
 c001ce2:	6d5b      	ldr	r3, [r3, #84]	; 0x54
 c001ce4:	089b      	lsrs	r3, r3, #2
 c001ce6:	4398      	bics	r0, r3
 c001ce8:	4770      	bx	lr
 c001cea:	bf00      	nop

0c001cec <ADC_Read>:
 c001cec:	f64c 0300 	movw	r3, #51200	; 0xc800
 c001cf0:	229c      	movs	r2, #156	; 0x9c
 c001cf2:	f6c4 0301 	movt	r3, #18433	; 0x4801
 c001cf6:	5898      	ldr	r0, [r3, r2]
 c001cf8:	b280      	uxth	r0, r0
 c001cfa:	4770      	bx	lr

0c001cfc <ADC_ClearFIFO>:
 c001cfc:	f64c 0300 	movw	r3, #51200	; 0xc800
 c001d00:	22a8      	movs	r2, #168	; 0xa8
 c001d02:	2101      	movs	r1, #1
 c001d04:	f6c4 0301 	movt	r3, #18433	; 0x4801
 c001d08:	5099      	str	r1, [r3, r2]
 c001d0a:	2100      	movs	r1, #0
 c001d0c:	5099      	str	r1, [r3, r2]
 c001d0e:	4770      	bx	lr

0c001d10 <ADC_SWTrigCmd>:
 c001d10:	f64c 0100 	movw	r1, #51200	; 0xc800
 c001d14:	23ac      	movs	r3, #172	; 0xac
 c001d16:	220c      	movs	r2, #12
 c001d18:	b510      	push	{r4, lr}
 c001d1a:	f6c4 0101 	movt	r1, #18433	; 0x4801
 c001d1e:	b082      	sub	sp, #8
 c001d20:	58cc      	ldr	r4, [r1, r3]
 c001d22:	ab01      	add	r3, sp, #4
 c001d24:	701a      	strb	r2, [r3, #0]
 c001d26:	3204      	adds	r2, #4
 c001d28:	705a      	strb	r2, [r3, #1]
 c001d2a:	3210      	adds	r2, #16
 c001d2c:	709a      	strb	r2, [r3, #2]
 c001d2e:	3220      	adds	r2, #32
 c001d30:	70da      	strb	r2, [r3, #3]
 c001d32:	b950      	cbnz	r0, c001d4a <ADC_SWTrigCmd+0x3a>
 c001d34:	64c8      	str	r0, [r1, #76]	; 0x4c
 c001d36:	22ff      	movs	r2, #255	; 0xff
 c001d38:	4022      	ands	r2, r4
 c001d3a:	5c98      	ldrb	r0, [r3, r2]
 c001d3c:	f241 43c3 	movw	r3, #5315	; 0x14c3
 c001d40:	f2c0 0300 	movt	r3, #0
 c001d44:	4798      	blx	r3
 c001d46:	b002      	add	sp, #8
 c001d48:	bd10      	pop	{r4, pc}
 c001d4a:	3a3f      	subs	r2, #63	; 0x3f
 c001d4c:	64ca      	str	r2, [r1, #76]	; 0x4c
 c001d4e:	e7f2      	b.n	c001d36 <ADC_SWTrigCmd+0x26>

0c001d50 <ADC_AutoCSwCmd>:
 c001d50:	f64c 0100 	movw	r1, #51200	; 0xc800
 c001d54:	23ac      	movs	r3, #172	; 0xac
 c001d56:	220c      	movs	r2, #12
 c001d58:	b510      	push	{r4, lr}
 c001d5a:	f6c4 0101 	movt	r1, #18433	; 0x4801
 c001d5e:	b082      	sub	sp, #8
 c001d60:	58cc      	ldr	r4, [r1, r3]
 c001d62:	ab01      	add	r3, sp, #4
 c001d64:	701a      	strb	r2, [r3, #0]
 c001d66:	3204      	adds	r2, #4
 c001d68:	705a      	strb	r2, [r3, #1]
 c001d6a:	3210      	adds	r2, #16
 c001d6c:	709a      	strb	r2, [r3, #2]
 c001d6e:	3220      	adds	r2, #32
 c001d70:	70da      	strb	r2, [r3, #3]
 c001d72:	b950      	cbnz	r0, c001d8a <ADC_AutoCSwCmd+0x3a>
 c001d74:	6488      	str	r0, [r1, #72]	; 0x48
 c001d76:	22ff      	movs	r2, #255	; 0xff
 c001d78:	4022      	ands	r2, r4
 c001d7a:	5c98      	ldrb	r0, [r3, r2]
 c001d7c:	f241 43c3 	movw	r3, #5315	; 0x14c3
 c001d80:	f2c0 0300 	movt	r3, #0
 c001d84:	4798      	blx	r3
 c001d86:	b002      	add	sp, #8
 c001d88:	bd10      	pop	{r4, pc}
 c001d8a:	3a3f      	subs	r2, #63	; 0x3f
 c001d8c:	648a      	str	r2, [r1, #72]	; 0x48
 c001d8e:	e7f2      	b.n	c001d76 <ADC_AutoCSwCmd+0x26>

0c001d90 <ADC_ReceiveBuf>:
 c001d90:	b570      	push	{r4, r5, r6, lr}
 c001d92:	f641 5551 	movw	r5, #7505	; 0x1d51
 c001d96:	000e      	movs	r6, r1
 c001d98:	0004      	movs	r4, r0
 c001d9a:	f6c0 4500 	movt	r5, #3072	; 0xc00
 c001d9e:	2001      	movs	r0, #1
 c001da0:	47a8      	blx	r5
 c001da2:	b186      	cbz	r6, c001dc6 <ADC_ReceiveBuf+0x36>
 c001da4:	0071      	lsls	r1, r6, #1
 c001da6:	f64c 0200 	movw	r2, #51200	; 0xc800
 c001daa:	0020      	movs	r0, r4
 c001dac:	1861      	adds	r1, r4, r1
 c001dae:	269c      	movs	r6, #156	; 0x9c
 c001db0:	2404      	movs	r4, #4
 c001db2:	f6c4 0201 	movt	r2, #18433	; 0x4801
 c001db6:	6d53      	ldr	r3, [r2, #84]	; 0x54
 c001db8:	421c      	tst	r4, r3
 c001dba:	d1fc      	bne.n	c001db6 <ADC_ReceiveBuf+0x26>
 c001dbc:	5993      	ldr	r3, [r2, r6]
 c001dbe:	8003      	strh	r3, [r0, #0]
 c001dc0:	3002      	adds	r0, #2
 c001dc2:	4288      	cmp	r0, r1
 c001dc4:	d1f7      	bne.n	c001db6 <ADC_ReceiveBuf+0x26>
 c001dc6:	2000      	movs	r0, #0
 c001dc8:	47a8      	blx	r5
 c001dca:	bd70      	pop	{r4, r5, r6, pc}

0c001dcc <CapTouch_GetISR>:
 c001dcc:	f24c 0300 	movw	r3, #49152	; 0xc000
 c001dd0:	f6c4 0301 	movt	r3, #18433	; 0x4801
 c001dd4:	b510      	push	{r4, lr}
 c001dd6:	0004      	movs	r4, r0
 c001dd8:	4298      	cmp	r0, r3
 c001dda:	d006      	beq.n	c001dea <CapTouch_GetISR+0x1e>
 c001ddc:	f644 4000 	movw	r0, #19456	; 0x4c00
 c001de0:	21e8      	movs	r1, #232	; 0xe8
 c001de2:	f6c0 4001 	movt	r0, #3073	; 0xc01
 c001de6:	f011 ff43 	bl	c013c70 <__io_assert_failed_veneer>
 c001dea:	6a60      	ldr	r0, [r4, #36]	; 0x24
 c001dec:	bd10      	pop	{r4, pc}
 c001dee:	bf00      	nop

0c001df0 <CapTouch_GetChStatus>:
 c001df0:	f24c 0300 	movw	r3, #49152	; 0xc000
 c001df4:	f6c4 0301 	movt	r3, #18433	; 0x4801
 c001df8:	b570      	push	{r4, r5, r6, lr}
 c001dfa:	0005      	movs	r5, r0
 c001dfc:	000c      	movs	r4, r1
 c001dfe:	4298      	cmp	r0, r3
 c001e00:	d006      	beq.n	c001e10 <CapTouch_GetChStatus+0x20>
 c001e02:	f644 4010 	movw	r0, #19472	; 0x4c10
 c001e06:	21f6      	movs	r1, #246	; 0xf6
 c001e08:	f6c0 4001 	movt	r0, #3073	; 0xc01
 c001e0c:	f011 ff30 	bl	c013c70 <__io_assert_failed_veneer>
 c001e10:	2c03      	cmp	r4, #3
 c001e12:	d805      	bhi.n	c001e20 <CapTouch_GetChStatus+0x30>
 c001e14:	2001      	movs	r0, #1
 c001e16:	3410      	adds	r4, #16
 c001e18:	0124      	lsls	r4, r4, #4
 c001e1a:	5963      	ldr	r3, [r4, r5]
 c001e1c:	4018      	ands	r0, r3
 c001e1e:	bd70      	pop	{r4, r5, r6, pc}
 c001e20:	f644 4010 	movw	r0, #19472	; 0x4c10
 c001e24:	21f7      	movs	r1, #247	; 0xf7
 c001e26:	f6c0 4001 	movt	r0, #3073	; 0xc01
 c001e2a:	f011 ff21 	bl	c013c70 <__io_assert_failed_veneer>
 c001e2e:	e7f1      	b.n	c001e14 <CapTouch_GetChStatus+0x24>

0c001e30 <CapTouch_DbgDumpReg>:
 c001e30:	b570      	push	{r4, r5, r6, lr}
 c001e32:	f240 14cc 	movw	r4, #460	; 0x1cc
 c001e36:	2680      	movs	r6, #128	; 0x80
 c001e38:	f2c0 0408 	movt	r4, #8
 c001e3c:	6823      	ldr	r3, [r4, #0]
 c001e3e:	02b6      	lsls	r6, r6, #10
 c001e40:	0005      	movs	r5, r0
 c001e42:	4233      	tst	r3, r6
 c001e44:	d100      	bne.n	c001e48 <CapTouch_DbgDumpReg+0x18>
 c001e46:	bd70      	pop	{r4, r5, r6, pc}
 c001e48:	6802      	ldr	r2, [r0, #0]
 c001e4a:	0001      	movs	r1, r0
 c001e4c:	f644 10bc 	movw	r0, #18876	; 0x49bc
 c001e50:	f6c0 4001 	movt	r0, #3073	; 0xc01
 c001e54:	f012 f92c 	bl	c0140b0 <__DiagPrintf_veneer>
 c001e58:	6823      	ldr	r3, [r4, #0]
 c001e5a:	4233      	tst	r3, r6
 c001e5c:	d02b      	beq.n	c001eb6 <CapTouch_DbgDumpReg+0x86>
 c001e5e:	f644 10d4 	movw	r0, #18900	; 0x49d4
 c001e62:	686a      	ldr	r2, [r5, #4]
 c001e64:	1d29      	adds	r1, r5, #4
 c001e66:	f6c0 4001 	movt	r0, #3073	; 0xc01
 c001e6a:	f012 f921 	bl	c0140b0 <__DiagPrintf_veneer>
 c001e6e:	6823      	ldr	r3, [r4, #0]
 c001e70:	4233      	tst	r3, r6
 c001e72:	d0e8      	beq.n	c001e46 <CapTouch_DbgDumpReg+0x16>
 c001e74:	0029      	movs	r1, r5
 c001e76:	f644 10f0 	movw	r0, #18928	; 0x49f0
 c001e7a:	68aa      	ldr	r2, [r5, #8]
 c001e7c:	3108      	adds	r1, #8
 c001e7e:	f6c0 4001 	movt	r0, #3073	; 0xc01
 c001e82:	f012 f915 	bl	c0140b0 <__DiagPrintf_veneer>
 c001e86:	6823      	ldr	r3, [r4, #0]
 c001e88:	4233      	tst	r3, r6
 c001e8a:	d02e      	beq.n	c001eea <CapTouch_DbgDumpReg+0xba>
 c001e8c:	0029      	movs	r1, r5
 c001e8e:	f644 200c 	movw	r0, #18956	; 0x4a0c
 c001e92:	68ea      	ldr	r2, [r5, #12]
 c001e94:	310c      	adds	r1, #12
 c001e96:	f6c0 4001 	movt	r0, #3073	; 0xc01
 c001e9a:	f012 f909 	bl	c0140b0 <__DiagPrintf_veneer>
 c001e9e:	6823      	ldr	r3, [r4, #0]
 c001ea0:	4233      	tst	r3, r6
 c001ea2:	d0d0      	beq.n	c001e46 <CapTouch_DbgDumpReg+0x16>
 c001ea4:	0029      	movs	r1, r5
 c001ea6:	f644 2024 	movw	r0, #18980	; 0x4a24
 c001eaa:	692a      	ldr	r2, [r5, #16]
 c001eac:	3110      	adds	r1, #16
 c001eae:	f6c0 4001 	movt	r0, #3073	; 0xc01
 c001eb2:	f012 f8fd 	bl	c0140b0 <__DiagPrintf_veneer>
 c001eb6:	2680      	movs	r6, #128	; 0x80
 c001eb8:	6823      	ldr	r3, [r4, #0]
 c001eba:	02b6      	lsls	r6, r6, #10
 c001ebc:	4233      	tst	r3, r6
 c001ebe:	d02e      	beq.n	c001f1e <CapTouch_DbgDumpReg+0xee>
 c001ec0:	0029      	movs	r1, r5
 c001ec2:	f644 2040 	movw	r0, #19008	; 0x4a40
 c001ec6:	696a      	ldr	r2, [r5, #20]
 c001ec8:	3114      	adds	r1, #20
 c001eca:	f6c0 4001 	movt	r0, #3073	; 0xc01
 c001ece:	f012 f8ef 	bl	c0140b0 <__DiagPrintf_veneer>
 c001ed2:	6823      	ldr	r3, [r4, #0]
 c001ed4:	4233      	tst	r3, r6
 c001ed6:	d0b6      	beq.n	c001e46 <CapTouch_DbgDumpReg+0x16>
 c001ed8:	0029      	movs	r1, r5
 c001eda:	f644 2060 	movw	r0, #19040	; 0x4a60
 c001ede:	69aa      	ldr	r2, [r5, #24]
 c001ee0:	3118      	adds	r1, #24
 c001ee2:	f6c0 4001 	movt	r0, #3073	; 0xc01
 c001ee6:	f012 f8e3 	bl	c0140b0 <__DiagPrintf_veneer>
 c001eea:	2680      	movs	r6, #128	; 0x80
 c001eec:	6823      	ldr	r3, [r4, #0]
 c001eee:	02b6      	lsls	r6, r6, #10
 c001ef0:	4233      	tst	r3, r6
 c001ef2:	d02f      	beq.n	c001f54 <CapTouch_DbgDumpReg+0x124>
 c001ef4:	0029      	movs	r1, r5
 c001ef6:	f644 2078 	movw	r0, #19064	; 0x4a78
 c001efa:	6a2a      	ldr	r2, [r5, #32]
 c001efc:	3120      	adds	r1, #32
 c001efe:	f6c0 4001 	movt	r0, #3073	; 0xc01
 c001f02:	f012 f8d5 	bl	c0140b0 <__DiagPrintf_veneer>
 c001f06:	6823      	ldr	r3, [r4, #0]
 c001f08:	4233      	tst	r3, r6
 c001f0a:	d09c      	beq.n	c001e46 <CapTouch_DbgDumpReg+0x16>
 c001f0c:	0029      	movs	r1, r5
 c001f0e:	f644 2090 	movw	r0, #19088	; 0x4a90
 c001f12:	6a6a      	ldr	r2, [r5, #36]	; 0x24
 c001f14:	3124      	adds	r1, #36	; 0x24
 c001f16:	f6c0 4001 	movt	r0, #3073	; 0xc01
 c001f1a:	f012 f8c9 	bl	c0140b0 <__DiagPrintf_veneer>
 c001f1e:	2680      	movs	r6, #128	; 0x80
 c001f20:	6823      	ldr	r3, [r4, #0]
 c001f22:	02b6      	lsls	r6, r6, #10
 c001f24:	4233      	tst	r3, r6
 c001f26:	d032      	beq.n	c001f8e <CapTouch_DbgDumpReg+0x15e>
 c001f28:	0029      	movs	r1, r5
 c001f2a:	f644 20a8 	movw	r0, #19112	; 0x4aa8
 c001f2e:	6aaa      	ldr	r2, [r5, #40]	; 0x28
 c001f30:	3128      	adds	r1, #40	; 0x28
 c001f32:	f6c0 4001 	movt	r0, #3073	; 0xc01
 c001f36:	f012 f8bb 	bl	c0140b0 <__DiagPrintf_veneer>
 c001f3a:	6823      	ldr	r3, [r4, #0]
 c001f3c:	4233      	tst	r3, r6
 c001f3e:	d100      	bne.n	c001f42 <CapTouch_DbgDumpReg+0x112>
 c001f40:	e781      	b.n	c001e46 <CapTouch_DbgDumpReg+0x16>
 c001f42:	0029      	movs	r1, r5
 c001f44:	f644 20c4 	movw	r0, #19140	; 0x4ac4
 c001f48:	6b2a      	ldr	r2, [r5, #48]	; 0x30
 c001f4a:	3130      	adds	r1, #48	; 0x30
 c001f4c:	f6c0 4001 	movt	r0, #3073	; 0xc01
 c001f50:	f012 f8ae 	bl	c0140b0 <__DiagPrintf_veneer>
 c001f54:	2680      	movs	r6, #128	; 0x80
 c001f56:	6823      	ldr	r3, [r4, #0]
 c001f58:	02b6      	lsls	r6, r6, #10
 c001f5a:	4233      	tst	r3, r6
 c001f5c:	d037      	beq.n	c001fce <CapTouch_DbgDumpReg+0x19e>
 c001f5e:	0029      	movs	r1, r5
 c001f60:	f644 20e0 	movw	r0, #19168	; 0x4ae0
 c001f64:	6b6a      	ldr	r2, [r5, #52]	; 0x34
 c001f66:	3134      	adds	r1, #52	; 0x34
 c001f68:	f6c0 4001 	movt	r0, #3073	; 0xc01
 c001f6c:	f012 f8a0 	bl	c0140b0 <__DiagPrintf_veneer>
 c001f70:	6823      	ldr	r3, [r4, #0]
 c001f72:	4233      	tst	r3, r6
 c001f74:	d100      	bne.n	c001f78 <CapTouch_DbgDumpReg+0x148>
 c001f76:	e766      	b.n	c001e46 <CapTouch_DbgDumpReg+0x16>
 c001f78:	f240 1300 	movw	r3, #256	; 0x100
 c001f7c:	f644 20f8 	movw	r0, #19192	; 0x4af8
 c001f80:	1c69      	adds	r1, r5, #1
 c001f82:	58ea      	ldr	r2, [r5, r3]
 c001f84:	31ff      	adds	r1, #255	; 0xff
 c001f86:	f6c0 4001 	movt	r0, #3073	; 0xc01
 c001f8a:	f012 f891 	bl	c0140b0 <__DiagPrintf_veneer>
 c001f8e:	2680      	movs	r6, #128	; 0x80
 c001f90:	6823      	ldr	r3, [r4, #0]
 c001f92:	02b6      	lsls	r6, r6, #10
 c001f94:	4233      	tst	r3, r6
 c001f96:	d039      	beq.n	c00200c <CapTouch_DbgDumpReg+0x1dc>
 c001f98:	f240 1304 	movw	r3, #260	; 0x104
 c001f9c:	f644 3018 	movw	r0, #19224	; 0x4b18
 c001fa0:	1d69      	adds	r1, r5, #5
 c001fa2:	58ea      	ldr	r2, [r5, r3]
 c001fa4:	31ff      	adds	r1, #255	; 0xff
 c001fa6:	f6c0 4001 	movt	r0, #3073	; 0xc01
 c001faa:	f012 f881 	bl	c0140b0 <__DiagPrintf_veneer>
 c001fae:	6823      	ldr	r3, [r4, #0]
 c001fb0:	4233      	tst	r3, r6
 c001fb2:	d100      	bne.n	c001fb6 <CapTouch_DbgDumpReg+0x186>
 c001fb4:	e747      	b.n	c001e46 <CapTouch_DbgDumpReg+0x16>
 c001fb6:	0029      	movs	r1, r5
 c001fb8:	f240 1308 	movw	r3, #264	; 0x108
 c001fbc:	f644 3038 	movw	r0, #19256	; 0x4b38
 c001fc0:	3109      	adds	r1, #9
 c001fc2:	58ea      	ldr	r2, [r5, r3]
 c001fc4:	31ff      	adds	r1, #255	; 0xff
 c001fc6:	f6c0 4001 	movt	r0, #3073	; 0xc01
 c001fca:	f012 f871 	bl	c0140b0 <__DiagPrintf_veneer>
 c001fce:	2680      	movs	r6, #128	; 0x80
 c001fd0:	6823      	ldr	r3, [r4, #0]
 c001fd2:	02b6      	lsls	r6, r6, #10
 c001fd4:	4233      	tst	r3, r6
 c001fd6:	d037      	beq.n	c002048 <CapTouch_DbgDumpReg+0x218>
 c001fd8:	0029      	movs	r1, r5
 c001fda:	f240 130c 	movw	r3, #268	; 0x10c
 c001fde:	f644 3058 	movw	r0, #19288	; 0x4b58
 c001fe2:	310d      	adds	r1, #13
 c001fe4:	58ea      	ldr	r2, [r5, r3]
 c001fe6:	31ff      	adds	r1, #255	; 0xff
 c001fe8:	f6c0 4001 	movt	r0, #3073	; 0xc01
 c001fec:	f012 f860 	bl	c0140b0 <__DiagPrintf_veneer>
 c001ff0:	6823      	ldr	r3, [r4, #0]
 c001ff2:	4233      	tst	r3, r6
 c001ff4:	d100      	bne.n	c001ff8 <CapTouch_DbgDumpReg+0x1c8>
 c001ff6:	e726      	b.n	c001e46 <CapTouch_DbgDumpReg+0x16>
 c001ff8:	f240 4300 	movw	r3, #1024	; 0x400
 c001ffc:	f644 3078 	movw	r0, #19320	; 0x4b78
 c002000:	58ea      	ldr	r2, [r5, r3]
 c002002:	18e9      	adds	r1, r5, r3
 c002004:	f6c0 4001 	movt	r0, #3073	; 0xc01
 c002008:	f012 f852 	bl	c0140b0 <__DiagPrintf_veneer>
 c00200c:	2680      	movs	r6, #128	; 0x80
 c00200e:	6823      	ldr	r3, [r4, #0]
 c002010:	02b6      	lsls	r6, r6, #10
 c002012:	4233      	tst	r3, r6
 c002014:	d100      	bne.n	c002018 <CapTouch_DbgDumpReg+0x1e8>
 c002016:	e716      	b.n	c001e46 <CapTouch_DbgDumpReg+0x16>
 c002018:	f240 4304 	movw	r3, #1028	; 0x404
 c00201c:	f644 309c 	movw	r0, #19356	; 0x4b9c
 c002020:	58ea      	ldr	r2, [r5, r3]
 c002022:	18e9      	adds	r1, r5, r3
 c002024:	f6c0 4001 	movt	r0, #3073	; 0xc01
 c002028:	f012 f842 	bl	c0140b0 <__DiagPrintf_veneer>
 c00202c:	6823      	ldr	r3, [r4, #0]
 c00202e:	4233      	tst	r3, r6
 c002030:	d100      	bne.n	c002034 <CapTouch_DbgDumpReg+0x204>
 c002032:	e708      	b.n	c001e46 <CapTouch_DbgDumpReg+0x16>
 c002034:	f240 4308 	movw	r3, #1032	; 0x408
 c002038:	f644 30c0 	movw	r0, #19392	; 0x4bc0
 c00203c:	58ea      	ldr	r2, [r5, r3]
 c00203e:	18e9      	adds	r1, r5, r3
 c002040:	f6c0 4001 	movt	r0, #3073	; 0xc01
 c002044:	f012 f834 	bl	c0140b0 <__DiagPrintf_veneer>
 c002048:	6823      	ldr	r3, [r4, #0]
 c00204a:	039b      	lsls	r3, r3, #14
 c00204c:	d400      	bmi.n	c002050 <CapTouch_DbgDumpReg+0x220>
 c00204e:	e6fa      	b.n	c001e46 <CapTouch_DbgDumpReg+0x16>
 c002050:	f240 430c 	movw	r3, #1036	; 0x40c
 c002054:	f644 30e4 	movw	r0, #19428	; 0x4be4
 c002058:	58ea      	ldr	r2, [r5, r3]
 c00205a:	18e9      	adds	r1, r5, r3
 c00205c:	f6c0 4001 	movt	r0, #3073	; 0xc01
 c002060:	f012 f826 	bl	c0140b0 <__DiagPrintf_veneer>
 c002064:	e6ef      	b.n	c001e46 <CapTouch_DbgDumpReg+0x16>
 c002066:	bf00      	nop

0c002068 <CapTouch_DbgDumpETC>:
 c002068:	b5f0      	push	{r4, r5, r6, r7, lr}
 c00206a:	464e      	mov	r6, r9
 c00206c:	46de      	mov	lr, fp
 c00206e:	4657      	mov	r7, sl
 c002070:	4645      	mov	r5, r8
 c002072:	b5e0      	push	{r5, r6, r7, lr}
 c002074:	b085      	sub	sp, #20
 c002076:	466a      	mov	r2, sp
 c002078:	7311      	strb	r1, [r2, #12]
 c00207a:	7b13      	ldrb	r3, [r2, #12]
 c00207c:	4689      	mov	r9, r1
 c00207e:	2b03      	cmp	r3, #3
 c002080:	d83e      	bhi.n	c002100 <CapTouch_DbgDumpETC+0x98>
 c002082:	21ff      	movs	r1, #255	; 0xff
 c002084:	464f      	mov	r7, r9
 c002086:	f24c 0300 	movw	r3, #49152	; 0xc000
 c00208a:	f240 1000 	movw	r0, #256	; 0x100
 c00208e:	400f      	ands	r7, r1
 c002090:	013a      	lsls	r2, r7, #4
 c002092:	f6c4 0301 	movt	r3, #18433	; 0x4801
 c002096:	18d3      	adds	r3, r2, r3
 c002098:	581e      	ldr	r6, [r3, r0]
 c00209a:	581c      	ldr	r4, [r3, r0]
 c00209c:	f24c 100c 	movw	r0, #49420	; 0xc10c
 c0020a0:	f6c4 0001 	movt	r0, #18433	; 0x4801
 c0020a4:	4684      	mov	ip, r0
 c0020a6:	f640 75ff 	movw	r5, #4095	; 0xfff
 c0020aa:	f240 1004 	movw	r0, #260	; 0x104
 c0020ae:	4462      	add	r2, ip
 c0020b0:	6812      	ldr	r2, [r2, #0]
 c0020b2:	0c36      	lsrs	r6, r6, #16
 c0020b4:	0924      	lsrs	r4, r4, #4
 c0020b6:	402e      	ands	r6, r5
 c0020b8:	402c      	ands	r4, r5
 c0020ba:	4015      	ands	r5, r2
 c0020bc:	581a      	ldr	r2, [r3, r0]
 c0020be:	581b      	ldr	r3, [r3, r0]
 c0020c0:	0c12      	lsrs	r2, r2, #16
 c0020c2:	4011      	ands	r1, r2
 c0020c4:	0e1b      	lsrs	r3, r3, #24
 c0020c6:	4688      	mov	r8, r1
 c0020c8:	469a      	mov	sl, r3
 c0020ca:	f24c 1300 	movw	r3, #49408	; 0xc100
 c0020ce:	f6c4 0301 	movt	r3, #18433	; 0x4801
 c0020d2:	469c      	mov	ip, r3
 c0020d4:	013f      	lsls	r7, r7, #4
 c0020d6:	4467      	add	r7, ip
 c0020d8:	687b      	ldr	r3, [r7, #4]
 c0020da:	f240 17cc 	movw	r7, #460	; 0x1cc
 c0020de:	9303      	str	r3, [sp, #12]
 c0020e0:	2380      	movs	r3, #128	; 0x80
 c0020e2:	029b      	lsls	r3, r3, #10
 c0020e4:	469b      	mov	fp, r3
 c0020e6:	465a      	mov	r2, fp
 c0020e8:	f2c0 0708 	movt	r7, #8
 c0020ec:	683b      	ldr	r3, [r7, #0]
 c0020ee:	4213      	tst	r3, r2
 c0020f0:	d168      	bne.n	c0021c4 <CapTouch_DbgDumpETC+0x15c>
 c0020f2:	b005      	add	sp, #20
 c0020f4:	bc3c      	pop	{r2, r3, r4, r5}
 c0020f6:	4690      	mov	r8, r2
 c0020f8:	4699      	mov	r9, r3
 c0020fa:	46a2      	mov	sl, r4
 c0020fc:	46ab      	mov	fp, r5
 c0020fe:	bdf0      	pop	{r4, r5, r6, r7, pc}
 c002100:	f644 4028 	movw	r0, #19496	; 0x4c28
 c002104:	f240 08ff 	movw	r8, #255	; 0xff
 c002108:	f240 1161 	movw	r1, #353	; 0x161
 c00210c:	f6c0 4001 	movt	r0, #3073	; 0xc01
 c002110:	f011 fdae 	bl	c013c70 <__io_assert_failed_veneer>
 c002114:	4647      	mov	r7, r8
 c002116:	464b      	mov	r3, r9
 c002118:	401f      	ands	r7, r3
 c00211a:	f24c 0300 	movw	r3, #49152	; 0xc000
 c00211e:	f6c4 0301 	movt	r3, #18433	; 0x4801
 c002122:	469a      	mov	sl, r3
 c002124:	013d      	lsls	r5, r7, #4
 c002126:	44aa      	add	sl, r5
 c002128:	f640 7bff 	movw	fp, #4095	; 0xfff
 c00212c:	4653      	mov	r3, sl
 c00212e:	f240 1400 	movw	r4, #256	; 0x100
 c002132:	f644 4070 	movw	r0, #19568	; 0x4c70
 c002136:	591e      	ldr	r6, [r3, r4]
 c002138:	465b      	mov	r3, fp
 c00213a:	f240 1196 	movw	r1, #406	; 0x196
 c00213e:	f6c0 4001 	movt	r0, #3073	; 0xc01
 c002142:	0c36      	lsrs	r6, r6, #16
 c002144:	401e      	ands	r6, r3
 c002146:	f011 fd93 	bl	c013c70 <__io_assert_failed_veneer>
 c00214a:	4653      	mov	r3, sl
 c00214c:	f644 4088 	movw	r0, #19592	; 0x4c88
 c002150:	591c      	ldr	r4, [r3, r4]
 c002152:	465b      	mov	r3, fp
 c002154:	f240 11a6 	movw	r1, #422	; 0x1a6
 c002158:	f6c0 4001 	movt	r0, #3073	; 0xc01
 c00215c:	0924      	lsrs	r4, r4, #4
 c00215e:	401c      	ands	r4, r3
 c002160:	f011 fd86 	bl	c013c70 <__io_assert_failed_veneer>
 c002164:	f24c 130c 	movw	r3, #49420	; 0xc10c
 c002168:	f6c4 0301 	movt	r3, #18433	; 0x4801
 c00216c:	469c      	mov	ip, r3
 c00216e:	f644 4058 	movw	r0, #19544	; 0x4c58
 c002172:	465b      	mov	r3, fp
 c002174:	f240 1b04 	movw	fp, #260	; 0x104
 c002178:	4465      	add	r5, ip
 c00217a:	682d      	ldr	r5, [r5, #0]
 c00217c:	f240 1182 	movw	r1, #386	; 0x182
 c002180:	f6c0 4001 	movt	r0, #3073	; 0xc01
 c002184:	401d      	ands	r5, r3
 c002186:	f011 fd73 	bl	c013c70 <__io_assert_failed_veneer>
 c00218a:	465a      	mov	r2, fp
 c00218c:	4653      	mov	r3, sl
 c00218e:	f644 4058 	movw	r0, #19544	; 0x4c58
